
rk3566_rz3w.elf:     file format elf64-littleaarch64


Disassembly of section .start_bspinit:

000000003cebc000 <OsElxState>:
__text_start():
/os/oscope/rtos/uniproton/demos/rk3566_rz3w/bsp/start.S:39
#define CPACR_EL1_FPEN_EN       (3 << 20)

    .global OsElxState
    .type   OsElxState, @function
OsElxState:
    MRS    x6, CurrentEL
    3cebc000:	d5384246 	mrs	x6, currentel
/os/oscope/rtos/uniproton/demos/rk3566_rz3w/bsp/start.S:40
    MOV    x2, #0x4
    3cebc004:	d2800082 	mov	x2, #0x4                   	// #4
/os/oscope/rtos/uniproton/demos/rk3566_rz3w/bsp/start.S:41
    CMP    w6, w2
    3cebc008:	6b0200df 	cmp	w6, w2
/os/oscope/rtos/uniproton/demos/rk3566_rz3w/bsp/start.S:43
    
    BEQ Start
    3cebc00c:	540004e0 	b.eq	3cebc0a8 <Start>  // b.none

000000003cebc010 <OsEl2Entry>:
OsEl2Entry():
/os/oscope/rtos/uniproton/demos/rk3566_rz3w/bsp/start.S:46
    
OsEl2Entry:
    MRS    x10, CNTHCTL_EL2
    3cebc010:	d53ce10a 	mrs	x10, cnthctl_el2
/os/oscope/rtos/uniproton/demos/rk3566_rz3w/bsp/start.S:47
    ORR    x10, x10, #0x3
    3cebc014:	b240054a 	orr	x10, x10, #0x3
/os/oscope/rtos/uniproton/demos/rk3566_rz3w/bsp/start.S:48
    MSR    CNTHCTL_EL2, x10
    3cebc018:	d51ce10a 	msr	cnthctl_el2, x10
/os/oscope/rtos/uniproton/demos/rk3566_rz3w/bsp/start.S:50
    
    MRS    x10, CNTKCTL_EL1
    3cebc01c:	d538e10a 	mrs	x10, cntkctl_el1
/os/oscope/rtos/uniproton/demos/rk3566_rz3w/bsp/start.S:51
    ORR    x10, x10, #0x3
    3cebc020:	b240054a 	orr	x10, x10, #0x3
/os/oscope/rtos/uniproton/demos/rk3566_rz3w/bsp/start.S:52
    MSR    CNTKCTL_EL1, x10
    3cebc024:	d518e10a 	msr	cntkctl_el1, x10
/os/oscope/rtos/uniproton/demos/rk3566_rz3w/bsp/start.S:54
    
    MRS    x10, MIDR_EL1
    3cebc028:	d538000a 	mrs	x10, midr_el1
/os/oscope/rtos/uniproton/demos/rk3566_rz3w/bsp/start.S:55
    MRS    x1, MPIDR_EL1
    3cebc02c:	d53800a1 	mrs	x1, mpidr_el1
/os/oscope/rtos/uniproton/demos/rk3566_rz3w/bsp/start.S:56
    MSR    VPIDR_EL2, x10
    3cebc030:	d51c000a 	msr	vpidr_el2, x10
/os/oscope/rtos/uniproton/demos/rk3566_rz3w/bsp/start.S:57
    MSR    VMPIDR_EL2, x1
    3cebc034:	d51c00a1 	msr	vmpidr_el2, x1
/os/oscope/rtos/uniproton/demos/rk3566_rz3w/bsp/start.S:59
    
    MOV    x10, #0x33ff
    3cebc038:	d2867fea 	mov	x10, #0x33ff                	// #13311
/os/oscope/rtos/uniproton/demos/rk3566_rz3w/bsp/start.S:60
    MSR    CPTR_EL2, x10
    3cebc03c:	d51c114a 	msr	cptr_el2, x10
/os/oscope/rtos/uniproton/demos/rk3566_rz3w/bsp/start.S:61
    MSR    HSTR_EL2, xzr
    3cebc040:	d51c117f 	msr	hstr_el2, xzr
/os/oscope/rtos/uniproton/demos/rk3566_rz3w/bsp/start.S:63
    
    MRS    x10, CPACR_EL1
    3cebc044:	d538104a 	mrs	x10, cpacr_el1
/os/oscope/rtos/uniproton/demos/rk3566_rz3w/bsp/start.S:64
    MOV    x10, #3 << 20
    3cebc048:	d2a0060a 	mov	x10, #0x300000              	// #3145728
/os/oscope/rtos/uniproton/demos/rk3566_rz3w/bsp/start.S:65
    MSR    CPACR_EL1, x10
    3cebc04c:	d518104a 	msr	cpacr_el1, x10
/os/oscope/rtos/uniproton/demos/rk3566_rz3w/bsp/start.S:67
    
    MOV    x10, #(HCR_EL2_RW)
    3cebc050:	d2b0000a 	mov	x10, #0x80000000            	// #2147483648
/os/oscope/rtos/uniproton/demos/rk3566_rz3w/bsp/start.S:68
    ORR    x10, x10, #(HCR_EL2_HCD)
    3cebc054:	b263014a 	orr	x10, x10, #0x20000000
/os/oscope/rtos/uniproton/demos/rk3566_rz3w/bsp/start.S:69
    BIC    x10, x10, #(HCR_EL2_TVM)
    3cebc058:	9265f94a 	and	x10, x10, #0xfffffffffbffffff
/os/oscope/rtos/uniproton/demos/rk3566_rz3w/bsp/start.S:70
    BIC    x10, x10, #(HCR_EL2_TRVM)
    3cebc05c:	9261f94a 	and	x10, x10, #0xffffffffbfffffff
/os/oscope/rtos/uniproton/demos/rk3566_rz3w/bsp/start.S:71
    BIC    x10, x10, #(HCR_EL2_TGE)
    3cebc060:	9264f94a 	and	x10, x10, #0xfffffffff7ffffff
/os/oscope/rtos/uniproton/demos/rk3566_rz3w/bsp/start.S:72
    BIC    x10, x10, #(HCR_EL2_AMO)
    3cebc064:	927af94a 	and	x10, x10, #0xffffffffffffffdf
/os/oscope/rtos/uniproton/demos/rk3566_rz3w/bsp/start.S:73
    BIC    x10, x10, #(HCR_EL2_IMO)
    3cebc068:	927bf94a 	and	x10, x10, #0xffffffffffffffef
/os/oscope/rtos/uniproton/demos/rk3566_rz3w/bsp/start.S:74
    BIC    x10, x10, #(HCR_EL2_FMO)
    3cebc06c:	927cf94a 	and	x10, x10, #0xfffffffffffffff7
/os/oscope/rtos/uniproton/demos/rk3566_rz3w/bsp/start.S:75
    BIC    x10, x10, #(HCR_EL2_TWI)
    3cebc070:	9272f94a 	and	x10, x10, #0xffffffffffffdfff
/os/oscope/rtos/uniproton/demos/rk3566_rz3w/bsp/start.S:76
    BIC    x10, x10, #(HCR_EL2_TWE)
    3cebc074:	9271f94a 	and	x10, x10, #0xffffffffffffbfff
/os/oscope/rtos/uniproton/demos/rk3566_rz3w/bsp/start.S:78
    
    MSR    HCR_EL2, x10
    3cebc078:	d51c110a 	msr	hcr_el2, x10

000000003cebc07c <OsEl2SwitchToEl1>:
OsEl2SwitchToEl1():
/os/oscope/rtos/uniproton/demos/rk3566_rz3w/bsp/start.S:81
    
OsEl2SwitchToEl1:
    ADR    x0, Start
    3cebc07c:	10000160 	adr	x0, 3cebc0a8 <Start>
/os/oscope/rtos/uniproton/demos/rk3566_rz3w/bsp/start.S:82
    MSR    SP_EL1, XZR
    3cebc080:	d51c411f 	msr	sp_el1, xzr
/os/oscope/rtos/uniproton/demos/rk3566_rz3w/bsp/start.S:83
    MSR    ELR_EL2, x0
    3cebc084:	d51c4020 	msr	elr_el2, x0
/os/oscope/rtos/uniproton/demos/rk3566_rz3w/bsp/start.S:84
    MOV    x0, XZR
    3cebc088:	aa1f03e0 	mov	x0, xzr
/os/oscope/rtos/uniproton/demos/rk3566_rz3w/bsp/start.S:86
    
    LDR    x20, =(SPSR_DBG_MASK | SPSR_SERR_MASK | \
    3cebc08c:	580002b4 	ldr	x20, 3cebc0e0 <OsEnterReset+0x4>
/os/oscope/rtos/uniproton/demos/rk3566_rz3w/bsp/start.S:88
                  SPSR_IRQ_MASK | SPSR_FIQ_MASK | SPSR_M_EL1H)
    MSR    SPSR_EL2, x20
    3cebc090:	d51c4014 	msr	spsr_el2, x20
/os/oscope/rtos/uniproton/demos/rk3566_rz3w/bsp/start.S:90
    
    TLBI   ALLE1IS
    3cebc094:	d50c839f 	tlbi	alle1is
/os/oscope/rtos/uniproton/demos/rk3566_rz3w/bsp/start.S:91
    IC     IALLU
    3cebc098:	d508751f 	ic	iallu
/os/oscope/rtos/uniproton/demos/rk3566_rz3w/bsp/start.S:92
    DSB    SY
    3cebc09c:	d5033f9f 	dsb	sy
/os/oscope/rtos/uniproton/demos/rk3566_rz3w/bsp/start.S:93
    ISB
    3cebc0a0:	d5033fdf 	isb
/os/oscope/rtos/uniproton/demos/rk3566_rz3w/bsp/start.S:94
    ERET
    3cebc0a4:	d69f03e0 	eret

000000003cebc0a8 <Start>:
Start():
/os/oscope/rtos/uniproton/demos/rk3566_rz3w/bsp/start.S:97
    
Start:
    LDR    x1, =__os_sys_sp_end
    3cebc0a8:	58000201 	ldr	x1, 3cebc0e8 <OsEnterReset+0xc>
/os/oscope/rtos/uniproton/demos/rk3566_rz3w/bsp/start.S:98
    BIC    sp, x1, #0xf
    3cebc0ac:	927cec3f 	and	sp, x1, #0xfffffffffffffff0
/os/oscope/rtos/uniproton/demos/rk3566_rz3w/bsp/start.S:100

    MRS    x10, CNTKCTL_EL1
    3cebc0b0:	d538e10a 	mrs	x10, cntkctl_el1
/os/oscope/rtos/uniproton/demos/rk3566_rz3w/bsp/start.S:101
    ORR    x10, x10, #0x3
    3cebc0b4:	b240054a 	orr	x10, x10, #0x3
/os/oscope/rtos/uniproton/demos/rk3566_rz3w/bsp/start.S:102
    MSR    CNTKCTL_EL1, x10
    3cebc0b8:	d518e10a 	msr	cntkctl_el1, x10
/os/oscope/rtos/uniproton/demos/rk3566_rz3w/bsp/start.S:105

    /* enable FPU */
    MRS    x10, CPACR_EL1
    3cebc0bc:	d538104a 	mrs	x10, cpacr_el1
/os/oscope/rtos/uniproton/demos/rk3566_rz3w/bsp/start.S:106
    MOV    x10, #3 << 20
    3cebc0c0:	d2a0060a 	mov	x10, #0x300000              	// #3145728
/os/oscope/rtos/uniproton/demos/rk3566_rz3w/bsp/start.S:107
    MSR    CPACR_EL1, x10
    3cebc0c4:	d518104a 	msr	cpacr_el1, x10
/os/oscope/rtos/uniproton/demos/rk3566_rz3w/bsp/start.S:108
    ISB
    3cebc0c8:	d5033fdf 	isb
/os/oscope/rtos/uniproton/demos/rk3566_rz3w/bsp/start.S:110

    B      OsResetVector
    3cebc0cc:	d2bfccc1 	mov	x1, #0xfe660000            	// #4268097536
/os/oscope/rtos/uniproton/demos/rk3566_rz3w/bsp/start.S:111

    3cebc0d0:	d2800822 	mov	x2, #0x41                  	// #65
/os/oscope/rtos/uniproton/demos/rk3566_rz3w/bsp/start.S:112
OsEnterReset:
    3cebc0d4:	f9000022 	str	x2, [x1]
/os/oscope/rtos/uniproton/demos/rk3566_rz3w/bsp/start.S:114
    B      OsEnterReset
    
    3cebc0d8:	14000006 	b	3cebc0f0 <OsResetVector>

000000003cebc0dc <OsEnterReset>:
OsEnterReset():
/os/oscope/rtos/uniproton/demos/rk3566_rz3w/bsp/start.S:117
    .section .text, "ax"
    .balign 4
    3cebc0dc:	14000000 	b	3cebc0dc <OsEnterReset>
    3cebc0e0:	000003c5 	.word	0x000003c5
    3cebc0e4:	00000000 	.word	0x00000000
    3cebc0e8:	3ceff290 	.word	0x3ceff290
    3cebc0ec:	00000000 	.word	0x00000000

Disassembly of section .start_text:

000000003cebc0f0 <OsResetVector>:
OsResetVector():
    3cebc0f0:	d2bfccc1 	mov	x1, #0xfe660000            	// #4268097536
    3cebc0f4:	d2800ac2 	mov	x2, #0x56                  	// #86
    3cebc0f8:	f9000022 	str	x2, [x1]
    3cebc0fc:	58000620 	ldr	x0, 3cebc1c0 <OsResetVector+0xd0>
    3cebc100:	d518c000 	msr	vbar_el1, x0
    3cebc104:	d2800000 	mov	x0, #0x0                   	// #0
    3cebc108:	d2800001 	mov	x1, #0x0                   	// #0
    3cebc10c:	d2800002 	mov	x2, #0x0                   	// #0
    3cebc110:	d2800003 	mov	x3, #0x0                   	// #0
    3cebc114:	d2800004 	mov	x4, #0x0                   	// #0
    3cebc118:	d2800005 	mov	x5, #0x0                   	// #0
    3cebc11c:	d2800006 	mov	x6, #0x0                   	// #0
    3cebc120:	d2800007 	mov	x7, #0x0                   	// #0
    3cebc124:	d2800008 	mov	x8, #0x0                   	// #0
    3cebc128:	d2800009 	mov	x9, #0x0                   	// #0
    3cebc12c:	d280000a 	mov	x10, #0x0                   	// #0
    3cebc130:	d280000b 	mov	x11, #0x0                   	// #0
    3cebc134:	d280000c 	mov	x12, #0x0                   	// #0
    3cebc138:	d280000d 	mov	x13, #0x0                   	// #0
    3cebc13c:	d280000e 	mov	x14, #0x0                   	// #0
    3cebc140:	d280000f 	mov	x15, #0x0                   	// #0
    3cebc144:	d2800010 	mov	x16, #0x0                   	// #0
    3cebc148:	d2800011 	mov	x17, #0x0                   	// #0
    3cebc14c:	d2800012 	mov	x18, #0x0                   	// #0
    3cebc150:	d2800013 	mov	x19, #0x0                   	// #0
    3cebc154:	d2800014 	mov	x20, #0x0                   	// #0
    3cebc158:	d2800015 	mov	x21, #0x0                   	// #0
    3cebc15c:	d2800016 	mov	x22, #0x0                   	// #0
    3cebc160:	d2800017 	mov	x23, #0x0                   	// #0
    3cebc164:	d2800018 	mov	x24, #0x0                   	// #0
    3cebc168:	d2800019 	mov	x25, #0x0                   	// #0
    3cebc16c:	d280001a 	mov	x26, #0x0                   	// #0
    3cebc170:	d280001b 	mov	x27, #0x0                   	// #0
    3cebc174:	d280001c 	mov	x28, #0x0                   	// #0
    3cebc178:	d280001d 	mov	x29, #0x0                   	// #0
    3cebc17c:	58000260 	ldr	x0, 3cebc1c8 <OsResetVector+0xd8>
    3cebc180:	927cec1f 	and	sp, x0, #0xfffffffffffffff0
    3cebc184:	940020e7 	bl	3cec4520 <OsBssInit>
    3cebc188:	94002077 	bl	3cec4364 <InitSystemSp>
    3cebc18c:	14000001 	b	3cebc190 <OsResetVector+0xa0>
    3cebc190:	d53800a1 	mrs	x1, mpidr_el1
    3cebc194:	580001e2 	ldr	x2, 3cebc1d0 <OsResetVector+0xe0>
    3cebc198:	f9000041 	str	x1, [x2]
    3cebc19c:	94000b4f 	bl	3cebeed8 <PRT_HardBootInit>
    3cebc1a0:	d2bfccc1 	mov	x1, #0xfe660000            	// #4268097536
    3cebc1a4:	d2800a62 	mov	x2, #0x53                  	// #83
    3cebc1a8:	f9000022 	str	x2, [x1]
    3cebc1ac:	94000b4d 	bl	3cebeee0 <main>
    3cebc1b0:	d2803802 	mov	x2, #0x1c0                 	// #448
    3cebc1b4:	d51b4222 	msr	daif, x2
    3cebc1b8:	14000000 	b	3cebc1b8 <OsResetVector+0xc8>
    3cebc1bc:	00000000 	udf	#0
    3cebc1c0:	3ced8000 	.word	0x3ced8000
    3cebc1c4:	00000000 	.word	0x00000000
    3cebc1c8:	3ceff290 	.word	0x3ceff290
    3cebc1cc:	00000000 	.word	0x00000000
    3cebc1d0:	3ceff298 	.word	0x3ceff298
    3cebc1d4:	00000000 	.word	0x00000000

Disassembly of section .text:

000000003cebe000 <os_asm_dcache_level>:
os_asm_dcache_level():
/os/oscope/rtos/uniproton/demos/rk3566_rz3w/bsp/cache_asm.S:7
.global os_asm_invalidate_icache_all
.global os_asm_invalidate_tlb_all

    .type os_asm_dcache_level, "function"
os_asm_dcache_level:
    lsl    x12, x0, #1
    3cebe000:	d37ff80c 	lsl	x12, x0, #1
/os/oscope/rtos/uniproton/demos/rk3566_rz3w/bsp/cache_asm.S:8
    msr    csselr_el1, x12
    3cebe004:	d51a000c 	msr	csselr_el1, x12
/os/oscope/rtos/uniproton/demos/rk3566_rz3w/bsp/cache_asm.S:9
    isb
    3cebe008:	d5033fdf 	isb
/os/oscope/rtos/uniproton/demos/rk3566_rz3w/bsp/cache_asm.S:10
    mrs    x6, ccsidr_el1
    3cebe00c:	d5390006 	mrs	x6, ccsidr_el1
/os/oscope/rtos/uniproton/demos/rk3566_rz3w/bsp/cache_asm.S:11
    and    x2, x6, #7
    3cebe010:	924008c2 	and	x2, x6, #0x7
/os/oscope/rtos/uniproton/demos/rk3566_rz3w/bsp/cache_asm.S:12
    add    x2, x2, #4
    3cebe014:	91001042 	add	x2, x2, #0x4
/os/oscope/rtos/uniproton/demos/rk3566_rz3w/bsp/cache_asm.S:13
    mov    x3, #0x3ff
    3cebe018:	d2807fe3 	mov	x3, #0x3ff                 	// #1023
/os/oscope/rtos/uniproton/demos/rk3566_rz3w/bsp/cache_asm.S:14
    and    x3, x3, x6, lsr #3
    3cebe01c:	8a460c63 	and	x3, x3, x6, lsr #3
/os/oscope/rtos/uniproton/demos/rk3566_rz3w/bsp/cache_asm.S:15
    clz    w5, w3
    3cebe020:	5ac01065 	clz	w5, w3
/os/oscope/rtos/uniproton/demos/rk3566_rz3w/bsp/cache_asm.S:16
    mov    x4, #0x7fff
    3cebe024:	d28fffe4 	mov	x4, #0x7fff                	// #32767
/os/oscope/rtos/uniproton/demos/rk3566_rz3w/bsp/cache_asm.S:17
    and    x4, x4, x6, lsr #13
    3cebe028:	8a463484 	and	x4, x4, x6, lsr #13

000000003cebe02c <loop_set>:
loop_set():
/os/oscope/rtos/uniproton/demos/rk3566_rz3w/bsp/cache_asm.S:20
    
loop_set:
    mov    x6, x3
    3cebe02c:	aa0303e6 	mov	x6, x3

000000003cebe030 <loop_way>:
loop_way():
/os/oscope/rtos/uniproton/demos/rk3566_rz3w/bsp/cache_asm.S:22
loop_way:
    lsl    x7, x6, x5
    3cebe030:	9ac520c7 	lsl	x7, x6, x5
/os/oscope/rtos/uniproton/demos/rk3566_rz3w/bsp/cache_asm.S:23
    orr    x9, x12, x7
    3cebe034:	aa070189 	orr	x9, x12, x7
/os/oscope/rtos/uniproton/demos/rk3566_rz3w/bsp/cache_asm.S:24
    lsl    x7, x4, x2
    3cebe038:	9ac22087 	lsl	x7, x4, x2
/os/oscope/rtos/uniproton/demos/rk3566_rz3w/bsp/cache_asm.S:25
    orr    x9, x9, x7
    3cebe03c:	aa070129 	orr	x9, x9, x7
/os/oscope/rtos/uniproton/demos/rk3566_rz3w/bsp/cache_asm.S:26
    tbz    w1, #1, 3f
    3cebe040:	36080061 	tbz	w1, #1, 3cebe04c <loop_way+0x1c>
/os/oscope/rtos/uniproton/demos/rk3566_rz3w/bsp/cache_asm.S:27
    dc     csw, x9
    3cebe044:	d5087a49 	dc	csw, x9
/os/oscope/rtos/uniproton/demos/rk3566_rz3w/bsp/cache_asm.S:28
    b      2f
    3cebe048:	14000005 	b	3cebe05c <loop_way+0x2c>
/os/oscope/rtos/uniproton/demos/rk3566_rz3w/bsp/cache_asm.S:29
3:  tbz    w1, #0, 1f
    3cebe04c:	36000061 	tbz	w1, #0, 3cebe058 <loop_way+0x28>
/os/oscope/rtos/uniproton/demos/rk3566_rz3w/bsp/cache_asm.S:30
    dc     isw, x9
    3cebe050:	d5087649 	dc	isw, x9
/os/oscope/rtos/uniproton/demos/rk3566_rz3w/bsp/cache_asm.S:31
    b      2f
    3cebe054:	14000002 	b	3cebe05c <loop_way+0x2c>
/os/oscope/rtos/uniproton/demos/rk3566_rz3w/bsp/cache_asm.S:32
1:  dc     cisw, x9
    3cebe058:	d5087e49 	dc	cisw, x9
/os/oscope/rtos/uniproton/demos/rk3566_rz3w/bsp/cache_asm.S:33
2:  subs   x6, x6, #1
    3cebe05c:	f10004c6 	subs	x6, x6, #0x1
/os/oscope/rtos/uniproton/demos/rk3566_rz3w/bsp/cache_asm.S:34
    b.ge   loop_way
    3cebe060:	54fffe8a 	b.ge	3cebe030 <loop_way>  // b.tcont
/os/oscope/rtos/uniproton/demos/rk3566_rz3w/bsp/cache_asm.S:35
    subs   x4, x4, #1
    3cebe064:	f1000484 	subs	x4, x4, #0x1
/os/oscope/rtos/uniproton/demos/rk3566_rz3w/bsp/cache_asm.S:36
    b.ge   loop_set
    3cebe068:	54fffe2a 	b.ge	3cebe02c <loop_set>  // b.tcont
/os/oscope/rtos/uniproton/demos/rk3566_rz3w/bsp/cache_asm.S:38
    
    ret
    3cebe06c:	d65f03c0 	ret

000000003cebe070 <os_asm_dcache_all>:
os_asm_dcache_all():
/os/oscope/rtos/uniproton/demos/rk3566_rz3w/bsp/cache_asm.S:42
    
    .type os_asm_dcache_all, "function"
os_asm_dcache_all:
    mov    x1, x0
    3cebe070:	aa0003e1 	mov	x1, x0
/os/oscope/rtos/uniproton/demos/rk3566_rz3w/bsp/cache_asm.S:43
    dsb    sy
    3cebe074:	d5033f9f 	dsb	sy
/os/oscope/rtos/uniproton/demos/rk3566_rz3w/bsp/cache_asm.S:44
    mrs    x10, clidr_el1
    3cebe078:	d539002a 	mrs	x10, clidr_el1
/os/oscope/rtos/uniproton/demos/rk3566_rz3w/bsp/cache_asm.S:45
    lsr    x11, x10, #24
    3cebe07c:	d358fd4b 	lsr	x11, x10, #24
/os/oscope/rtos/uniproton/demos/rk3566_rz3w/bsp/cache_asm.S:46
    and    x11, x11, #0x7
    3cebe080:	9240096b 	and	x11, x11, #0x7
/os/oscope/rtos/uniproton/demos/rk3566_rz3w/bsp/cache_asm.S:47
    cbz    x11, finished
    3cebe084:	b400024b 	cbz	x11, 3cebe0cc <finished>
/os/oscope/rtos/uniproton/demos/rk3566_rz3w/bsp/cache_asm.S:48
    mov    x15, x30
    3cebe088:	aa1e03ef 	mov	x15, x30
/os/oscope/rtos/uniproton/demos/rk3566_rz3w/bsp/cache_asm.S:49
    mov    x0, #0
    3cebe08c:	d2800000 	mov	x0, #0x0                   	// #0

000000003cebe090 <loop_level>:
loop_level():
/os/oscope/rtos/uniproton/demos/rk3566_rz3w/bsp/cache_asm.S:52
    
loop_level:
    lsl    x12, x0, #1
    3cebe090:	d37ff80c 	lsl	x12, x0, #1
/os/oscope/rtos/uniproton/demos/rk3566_rz3w/bsp/cache_asm.S:53
    add    x12, x12, x0
    3cebe094:	8b00018c 	add	x12, x12, x0
/os/oscope/rtos/uniproton/demos/rk3566_rz3w/bsp/cache_asm.S:54
    lsr    x12, x10, x12
    3cebe098:	9acc254c 	lsr	x12, x10, x12
/os/oscope/rtos/uniproton/demos/rk3566_rz3w/bsp/cache_asm.S:55
    and    x12, x12, #7
    3cebe09c:	9240098c 	and	x12, x12, #0x7
/os/oscope/rtos/uniproton/demos/rk3566_rz3w/bsp/cache_asm.S:56
    cmp    x12, #2
    3cebe0a0:	f100099f 	cmp	x12, #0x2
/os/oscope/rtos/uniproton/demos/rk3566_rz3w/bsp/cache_asm.S:57
    b.lt   skip
    3cebe0a4:	5400004b 	b.lt	3cebe0ac <skip>  // b.tstop
/os/oscope/rtos/uniproton/demos/rk3566_rz3w/bsp/cache_asm.S:58
    bl     os_asm_dcache_level
    3cebe0a8:	97ffffd6 	bl	3cebe000 <os_asm_dcache_level>

000000003cebe0ac <skip>:
skip():
/os/oscope/rtos/uniproton/demos/rk3566_rz3w/bsp/cache_asm.S:60
skip:
    add    x0, x0, #1
    3cebe0ac:	91000400 	add	x0, x0, #0x1
/os/oscope/rtos/uniproton/demos/rk3566_rz3w/bsp/cache_asm.S:61
    cmp    x11, x0
    3cebe0b0:	eb00017f 	cmp	x11, x0
/os/oscope/rtos/uniproton/demos/rk3566_rz3w/bsp/cache_asm.S:62
    b.gt   loop_level
    3cebe0b4:	54fffeec 	b.gt	3cebe090 <loop_level>
/os/oscope/rtos/uniproton/demos/rk3566_rz3w/bsp/cache_asm.S:64
    
    mov    x0, #0
    3cebe0b8:	d2800000 	mov	x0, #0x0                   	// #0
/os/oscope/rtos/uniproton/demos/rk3566_rz3w/bsp/cache_asm.S:65
    msr    csselr_el1, x0
    3cebe0bc:	d51a0000 	msr	csselr_el1, x0
/os/oscope/rtos/uniproton/demos/rk3566_rz3w/bsp/cache_asm.S:66
    dsb    sy
    3cebe0c0:	d5033f9f 	dsb	sy
/os/oscope/rtos/uniproton/demos/rk3566_rz3w/bsp/cache_asm.S:67
    isb
    3cebe0c4:	d5033fdf 	isb
/os/oscope/rtos/uniproton/demos/rk3566_rz3w/bsp/cache_asm.S:68
    mov    x30, x15
    3cebe0c8:	aa0f03fe 	mov	x30, x15

000000003cebe0cc <finished>:
finished():
/os/oscope/rtos/uniproton/demos/rk3566_rz3w/bsp/cache_asm.S:71
    
finished:
    ret
    3cebe0cc:	d65f03c0 	ret

000000003cebe0d0 <os_asm_invalidate_dcache_all>:
os_asm_invalidate_dcache_all():
/os/oscope/rtos/uniproton/demos/rk3566_rz3w/bsp/cache_asm.S:75

    .type os_asm_invalidate_dcache_all, "function"
os_asm_invalidate_dcache_all:
    mov    x0, #0x1
    3cebe0d0:	d2800020 	mov	x0, #0x1                   	// #1
/os/oscope/rtos/uniproton/demos/rk3566_rz3w/bsp/cache_asm.S:76
    b      os_asm_dcache_all
    3cebe0d4:	17ffffe7 	b	3cebe070 <os_asm_dcache_all>

000000003cebe0d8 <os_asm_invalidate_icache_all>:
os_asm_invalidate_icache_all():
/os/oscope/rtos/uniproton/demos/rk3566_rz3w/bsp/cache_asm.S:80

    .type os_asm_invalidate_icache_all, "function"
os_asm_invalidate_icache_all:
    ic     ialluis
    3cebe0d8:	d508711f 	ic	ialluis
/os/oscope/rtos/uniproton/demos/rk3566_rz3w/bsp/cache_asm.S:81
    isb    sy
    3cebe0dc:	d5033fdf 	isb
/os/oscope/rtos/uniproton/demos/rk3566_rz3w/bsp/cache_asm.S:82
    ret
    3cebe0e0:	d65f03c0 	ret

000000003cebe0e4 <os_asm_invalidate_tlb_all>:
os_asm_invalidate_tlb_all():
/os/oscope/rtos/uniproton/demos/rk3566_rz3w/bsp/cache_asm.S:86

    .type os_asm_invalidate_tlb_all, "function"
os_asm_invalidate_tlb_all:
    tlbi   vmalle1
    3cebe0e4:	d508871f 	tlbi	vmalle1
/os/oscope/rtos/uniproton/demos/rk3566_rz3w/bsp/cache_asm.S:87
    dsb    sy
    3cebe0e8:	d5033f9f 	dsb	sy
/os/oscope/rtos/uniproton/demos/rk3566_rz3w/bsp/cache_asm.S:88
    isb
    3cebe0ec:	d5033fdf 	isb
/os/oscope/rtos/uniproton/demos/rk3566_rz3w/bsp/cache_asm.S:89
    ret
    3cebe0f0:	d65f03c0 	ret
	...

000000003cebe100 <strlen>:
strlen():
/data/jenkins/workspace/GNU-toolchain/arm-10/src/newlib-cygwin/newlib/libc/machine/aarch64/strlen.S:108
    3cebe100:	92402c04 	and	x4, x0, #0xfff
/data/jenkins/workspace/GNU-toolchain/arm-10/src/newlib-cygwin/newlib/libc/machine/aarch64/strlen.S:109
    3cebe104:	b200c3e8 	mov	x8, #0x101010101010101     	// #72340172838076673
/data/jenkins/workspace/GNU-toolchain/arm-10/src/newlib-cygwin/newlib/libc/machine/aarch64/strlen.S:110
    3cebe108:	f13fc09f 	cmp	x4, #0xff0
/data/jenkins/workspace/GNU-toolchain/arm-10/src/newlib-cygwin/newlib/libc/machine/aarch64/strlen.S:111
    3cebe10c:	5400082c 	b.gt	3cebe210 <strlen+0x110>
/data/jenkins/workspace/GNU-toolchain/arm-10/src/newlib-cygwin/newlib/libc/machine/aarch64/strlen.S:112
    3cebe110:	a9400c02 	ldp	x2, x3, [x0]
/data/jenkins/workspace/GNU-toolchain/arm-10/src/newlib-cygwin/newlib/libc/machine/aarch64/strlen.S:121
    3cebe114:	cb080044 	sub	x4, x2, x8
/data/jenkins/workspace/GNU-toolchain/arm-10/src/newlib-cygwin/newlib/libc/machine/aarch64/strlen.S:122
    3cebe118:	b200d845 	orr	x5, x2, #0x7f7f7f7f7f7f7f7f
/data/jenkins/workspace/GNU-toolchain/arm-10/src/newlib-cygwin/newlib/libc/machine/aarch64/strlen.S:123
    3cebe11c:	cb080066 	sub	x6, x3, x8
/data/jenkins/workspace/GNU-toolchain/arm-10/src/newlib-cygwin/newlib/libc/machine/aarch64/strlen.S:124
    3cebe120:	b200d867 	orr	x7, x3, #0x7f7f7f7f7f7f7f7f
/data/jenkins/workspace/GNU-toolchain/arm-10/src/newlib-cygwin/newlib/libc/machine/aarch64/strlen.S:125
    3cebe124:	ea250084 	bics	x4, x4, x5
/data/jenkins/workspace/GNU-toolchain/arm-10/src/newlib-cygwin/newlib/libc/machine/aarch64/strlen.S:126
    3cebe128:	8a2700c5 	bic	x5, x6, x7
/data/jenkins/workspace/GNU-toolchain/arm-10/src/newlib-cygwin/newlib/libc/machine/aarch64/strlen.S:127
    3cebe12c:	fa4008a0 	ccmp	x5, #0x0, #0x0, eq  // eq = none
/data/jenkins/workspace/GNU-toolchain/arm-10/src/newlib-cygwin/newlib/libc/machine/aarch64/strlen.S:128
    3cebe130:	54000100 	b.eq	3cebe150 <strlen+0x50>  // b.none
/data/jenkins/workspace/GNU-toolchain/arm-10/src/newlib-cygwin/newlib/libc/machine/aarch64/strlen.S:131
    3cebe134:	9a853084 	csel	x4, x4, x5, cc  // cc = lo, ul, last
/data/jenkins/workspace/GNU-toolchain/arm-10/src/newlib-cygwin/newlib/libc/machine/aarch64/strlen.S:132
    3cebe138:	d2800100 	mov	x0, #0x8                   	// #8
/data/jenkins/workspace/GNU-toolchain/arm-10/src/newlib-cygwin/newlib/libc/machine/aarch64/strlen.S:133
    3cebe13c:	dac00c84 	rev	x4, x4
/data/jenkins/workspace/GNU-toolchain/arm-10/src/newlib-cygwin/newlib/libc/machine/aarch64/strlen.S:134
    3cebe140:	dac01084 	clz	x4, x4
/data/jenkins/workspace/GNU-toolchain/arm-10/src/newlib-cygwin/newlib/libc/machine/aarch64/strlen.S:135
    3cebe144:	9a8033e0 	csel	x0, xzr, x0, cc  // cc = lo, ul, last
/data/jenkins/workspace/GNU-toolchain/arm-10/src/newlib-cygwin/newlib/libc/machine/aarch64/strlen.S:136
    3cebe148:	8b440c00 	add	x0, x0, x4, lsr #3
/data/jenkins/workspace/GNU-toolchain/arm-10/src/newlib-cygwin/newlib/libc/machine/aarch64/strlen.S:137
    3cebe14c:	d65f03c0 	ret
/data/jenkins/workspace/GNU-toolchain/arm-10/src/newlib-cygwin/newlib/libc/machine/aarch64/strlen.S:144
    3cebe150:	927cec01 	and	x1, x0, #0xfffffffffffffff0
/data/jenkins/workspace/GNU-toolchain/arm-10/src/newlib-cygwin/newlib/libc/machine/aarch64/strlen.S:145
    3cebe154:	d1004021 	sub	x1, x1, #0x10
/data/jenkins/workspace/GNU-toolchain/arm-10/src/newlib-cygwin/newlib/libc/machine/aarch64/strlen.S:147
    3cebe158:	a9c20c22 	ldp	x2, x3, [x1, #32]!
/data/jenkins/workspace/GNU-toolchain/arm-10/src/newlib-cygwin/newlib/libc/machine/aarch64/strlen.S:149
    3cebe15c:	cb080044 	sub	x4, x2, x8
/data/jenkins/workspace/GNU-toolchain/arm-10/src/newlib-cygwin/newlib/libc/machine/aarch64/strlen.S:150
    3cebe160:	cb080066 	sub	x6, x3, x8
/data/jenkins/workspace/GNU-toolchain/arm-10/src/newlib-cygwin/newlib/libc/machine/aarch64/strlen.S:151
    3cebe164:	aa060085 	orr	x5, x4, x6
/data/jenkins/workspace/GNU-toolchain/arm-10/src/newlib-cygwin/newlib/libc/machine/aarch64/strlen.S:152
    3cebe168:	ea081cbf 	tst	x5, x8, lsl #7
/data/jenkins/workspace/GNU-toolchain/arm-10/src/newlib-cygwin/newlib/libc/machine/aarch64/strlen.S:153
    3cebe16c:	54000101 	b.ne	3cebe18c <strlen+0x8c>  // b.any
/data/jenkins/workspace/GNU-toolchain/arm-10/src/newlib-cygwin/newlib/libc/machine/aarch64/strlen.S:154
    3cebe170:	a9410c22 	ldp	x2, x3, [x1, #16]
/data/jenkins/workspace/GNU-toolchain/arm-10/src/newlib-cygwin/newlib/libc/machine/aarch64/strlen.S:155
    3cebe174:	cb080044 	sub	x4, x2, x8
/data/jenkins/workspace/GNU-toolchain/arm-10/src/newlib-cygwin/newlib/libc/machine/aarch64/strlen.S:156
    3cebe178:	cb080066 	sub	x6, x3, x8
/data/jenkins/workspace/GNU-toolchain/arm-10/src/newlib-cygwin/newlib/libc/machine/aarch64/strlen.S:157
    3cebe17c:	aa060085 	orr	x5, x4, x6
/data/jenkins/workspace/GNU-toolchain/arm-10/src/newlib-cygwin/newlib/libc/machine/aarch64/strlen.S:158
    3cebe180:	ea081cbf 	tst	x5, x8, lsl #7
/data/jenkins/workspace/GNU-toolchain/arm-10/src/newlib-cygwin/newlib/libc/machine/aarch64/strlen.S:159
    3cebe184:	54fffea0 	b.eq	3cebe158 <strlen+0x58>  // b.none
/data/jenkins/workspace/GNU-toolchain/arm-10/src/newlib-cygwin/newlib/libc/machine/aarch64/strlen.S:160
    3cebe188:	91004021 	add	x1, x1, #0x10
/data/jenkins/workspace/GNU-toolchain/arm-10/src/newlib-cygwin/newlib/libc/machine/aarch64/strlen.S:163
    3cebe18c:	b200d845 	orr	x5, x2, #0x7f7f7f7f7f7f7f7f
/data/jenkins/workspace/GNU-toolchain/arm-10/src/newlib-cygwin/newlib/libc/machine/aarch64/strlen.S:164
    3cebe190:	b200d867 	orr	x7, x3, #0x7f7f7f7f7f7f7f7f
/data/jenkins/workspace/GNU-toolchain/arm-10/src/newlib-cygwin/newlib/libc/machine/aarch64/strlen.S:165
    3cebe194:	ea250084 	bics	x4, x4, x5
/data/jenkins/workspace/GNU-toolchain/arm-10/src/newlib-cygwin/newlib/libc/machine/aarch64/strlen.S:166
    3cebe198:	8a2700c5 	bic	x5, x6, x7
/data/jenkins/workspace/GNU-toolchain/arm-10/src/newlib-cygwin/newlib/libc/machine/aarch64/strlen.S:167
    3cebe19c:	fa4008a0 	ccmp	x5, #0x0, #0x0, eq  // eq = none
/data/jenkins/workspace/GNU-toolchain/arm-10/src/newlib-cygwin/newlib/libc/machine/aarch64/strlen.S:168
    3cebe1a0:	54000120 	b.eq	3cebe1c4 <strlen+0xc4>  // b.none
/data/jenkins/workspace/GNU-toolchain/arm-10/src/newlib-cygwin/newlib/libc/machine/aarch64/strlen.S:183
    3cebe1a4:	9a853084 	csel	x4, x4, x5, cc  // cc = lo, ul, last
/data/jenkins/workspace/GNU-toolchain/arm-10/src/newlib-cygwin/newlib/libc/machine/aarch64/strlen.S:185
    3cebe1a8:	cb000020 	sub	x0, x1, x0
/data/jenkins/workspace/GNU-toolchain/arm-10/src/newlib-cygwin/newlib/libc/machine/aarch64/strlen.S:186
    3cebe1ac:	dac00c84 	rev	x4, x4
/data/jenkins/workspace/GNU-toolchain/arm-10/src/newlib-cygwin/newlib/libc/machine/aarch64/strlen.S:187
    3cebe1b0:	91002005 	add	x5, x0, #0x8
/data/jenkins/workspace/GNU-toolchain/arm-10/src/newlib-cygwin/newlib/libc/machine/aarch64/strlen.S:188
    3cebe1b4:	dac01084 	clz	x4, x4
/data/jenkins/workspace/GNU-toolchain/arm-10/src/newlib-cygwin/newlib/libc/machine/aarch64/strlen.S:189
    3cebe1b8:	9a853000 	csel	x0, x0, x5, cc  // cc = lo, ul, last
/data/jenkins/workspace/GNU-toolchain/arm-10/src/newlib-cygwin/newlib/libc/machine/aarch64/strlen.S:190
    3cebe1bc:	8b440c00 	add	x0, x0, x4, lsr #3
/data/jenkins/workspace/GNU-toolchain/arm-10/src/newlib-cygwin/newlib/libc/machine/aarch64/strlen.S:191
    3cebe1c0:	d65f03c0 	ret
/data/jenkins/workspace/GNU-toolchain/arm-10/src/newlib-cygwin/newlib/libc/machine/aarch64/strlen.S:194
    3cebe1c4:	a9c10c22 	ldp	x2, x3, [x1, #16]!
/data/jenkins/workspace/GNU-toolchain/arm-10/src/newlib-cygwin/newlib/libc/machine/aarch64/strlen.S:195
    3cebe1c8:	cb080044 	sub	x4, x2, x8
/data/jenkins/workspace/GNU-toolchain/arm-10/src/newlib-cygwin/newlib/libc/machine/aarch64/strlen.S:196
    3cebe1cc:	b200d845 	orr	x5, x2, #0x7f7f7f7f7f7f7f7f
/data/jenkins/workspace/GNU-toolchain/arm-10/src/newlib-cygwin/newlib/libc/machine/aarch64/strlen.S:197
    3cebe1d0:	cb080066 	sub	x6, x3, x8
/data/jenkins/workspace/GNU-toolchain/arm-10/src/newlib-cygwin/newlib/libc/machine/aarch64/strlen.S:198
    3cebe1d4:	b200d867 	orr	x7, x3, #0x7f7f7f7f7f7f7f7f
/data/jenkins/workspace/GNU-toolchain/arm-10/src/newlib-cygwin/newlib/libc/machine/aarch64/strlen.S:199
    3cebe1d8:	ea250084 	bics	x4, x4, x5
/data/jenkins/workspace/GNU-toolchain/arm-10/src/newlib-cygwin/newlib/libc/machine/aarch64/strlen.S:200
    3cebe1dc:	8a2700c5 	bic	x5, x6, x7
/data/jenkins/workspace/GNU-toolchain/arm-10/src/newlib-cygwin/newlib/libc/machine/aarch64/strlen.S:201
    3cebe1e0:	fa4008a0 	ccmp	x5, #0x0, #0x0, eq  // eq = none
/data/jenkins/workspace/GNU-toolchain/arm-10/src/newlib-cygwin/newlib/libc/machine/aarch64/strlen.S:202
    3cebe1e4:	54fffe01 	b.ne	3cebe1a4 <strlen+0xa4>  // b.any
/data/jenkins/workspace/GNU-toolchain/arm-10/src/newlib-cygwin/newlib/libc/machine/aarch64/strlen.S:203
    3cebe1e8:	a9c10c22 	ldp	x2, x3, [x1, #16]!
/data/jenkins/workspace/GNU-toolchain/arm-10/src/newlib-cygwin/newlib/libc/machine/aarch64/strlen.S:204
    3cebe1ec:	cb080044 	sub	x4, x2, x8
/data/jenkins/workspace/GNU-toolchain/arm-10/src/newlib-cygwin/newlib/libc/machine/aarch64/strlen.S:205
    3cebe1f0:	b200d845 	orr	x5, x2, #0x7f7f7f7f7f7f7f7f
/data/jenkins/workspace/GNU-toolchain/arm-10/src/newlib-cygwin/newlib/libc/machine/aarch64/strlen.S:206
    3cebe1f4:	cb080066 	sub	x6, x3, x8
/data/jenkins/workspace/GNU-toolchain/arm-10/src/newlib-cygwin/newlib/libc/machine/aarch64/strlen.S:207
    3cebe1f8:	b200d867 	orr	x7, x3, #0x7f7f7f7f7f7f7f7f
/data/jenkins/workspace/GNU-toolchain/arm-10/src/newlib-cygwin/newlib/libc/machine/aarch64/strlen.S:208
    3cebe1fc:	ea250084 	bics	x4, x4, x5
/data/jenkins/workspace/GNU-toolchain/arm-10/src/newlib-cygwin/newlib/libc/machine/aarch64/strlen.S:209
    3cebe200:	8a2700c5 	bic	x5, x6, x7
/data/jenkins/workspace/GNU-toolchain/arm-10/src/newlib-cygwin/newlib/libc/machine/aarch64/strlen.S:210
    3cebe204:	fa4008a0 	ccmp	x5, #0x0, #0x0, eq  // eq = none
/data/jenkins/workspace/GNU-toolchain/arm-10/src/newlib-cygwin/newlib/libc/machine/aarch64/strlen.S:211
    3cebe208:	54fffde0 	b.eq	3cebe1c4 <strlen+0xc4>  // b.none
/data/jenkins/workspace/GNU-toolchain/arm-10/src/newlib-cygwin/newlib/libc/machine/aarch64/strlen.S:212
    3cebe20c:	17ffffe6 	b	3cebe1a4 <strlen+0xa4>
/data/jenkins/workspace/GNU-toolchain/arm-10/src/newlib-cygwin/newlib/libc/machine/aarch64/strlen.S:218
    3cebe210:	927cec01 	and	x1, x0, #0xfffffffffffffff0
/data/jenkins/workspace/GNU-toolchain/arm-10/src/newlib-cygwin/newlib/libc/machine/aarch64/strlen.S:219
    3cebe214:	a9400c22 	ldp	x2, x3, [x1]
/data/jenkins/workspace/GNU-toolchain/arm-10/src/newlib-cygwin/newlib/libc/machine/aarch64/strlen.S:220
    3cebe218:	d37df004 	lsl	x4, x0, #3
/data/jenkins/workspace/GNU-toolchain/arm-10/src/newlib-cygwin/newlib/libc/machine/aarch64/strlen.S:221
    3cebe21c:	92800007 	mov	x7, #0xffffffffffffffff    	// #-1
/data/jenkins/workspace/GNU-toolchain/arm-10/src/newlib-cygwin/newlib/libc/machine/aarch64/strlen.S:227
    3cebe220:	9ac420e4 	lsl	x4, x7, x4
/data/jenkins/workspace/GNU-toolchain/arm-10/src/newlib-cygwin/newlib/libc/machine/aarch64/strlen.S:229
    3cebe224:	b201c084 	orr	x4, x4, #0x8080808080808080
/data/jenkins/workspace/GNU-toolchain/arm-10/src/newlib-cygwin/newlib/libc/machine/aarch64/strlen.S:230
    3cebe228:	aa240042 	orn	x2, x2, x4
/data/jenkins/workspace/GNU-toolchain/arm-10/src/newlib-cygwin/newlib/libc/machine/aarch64/strlen.S:231
    3cebe22c:	aa240065 	orn	x5, x3, x4
/data/jenkins/workspace/GNU-toolchain/arm-10/src/newlib-cygwin/newlib/libc/machine/aarch64/strlen.S:232
    3cebe230:	f27d001f 	tst	x0, #0x8
/data/jenkins/workspace/GNU-toolchain/arm-10/src/newlib-cygwin/newlib/libc/machine/aarch64/strlen.S:233
    3cebe234:	9a870042 	csel	x2, x2, x7, eq  // eq = none
/data/jenkins/workspace/GNU-toolchain/arm-10/src/newlib-cygwin/newlib/libc/machine/aarch64/strlen.S:234
    3cebe238:	9a850063 	csel	x3, x3, x5, eq  // eq = none
/data/jenkins/workspace/GNU-toolchain/arm-10/src/newlib-cygwin/newlib/libc/machine/aarch64/strlen.S:235
    3cebe23c:	17ffffc8 	b	3cebe15c <strlen+0x5c>

000000003cebe240 <strchr>:
strchr():
/data/jenkins/workspace/GNU-toolchain/arm-10/src/newlib-cygwin/newlib/libc/machine/aarch64/strchr.S:89
    3cebe240:	52808024 	mov	w4, #0x401                 	// #1025
/data/jenkins/workspace/GNU-toolchain/arm-10/src/newlib-cygwin/newlib/libc/machine/aarch64/strchr.S:90
    3cebe244:	72a80204 	movk	w4, #0x4010, lsl #16
/data/jenkins/workspace/GNU-toolchain/arm-10/src/newlib-cygwin/newlib/libc/machine/aarch64/strchr.S:91
    3cebe248:	4e010c20 	dup	v0.16b, w1
/data/jenkins/workspace/GNU-toolchain/arm-10/src/newlib-cygwin/newlib/libc/machine/aarch64/strchr.S:92
    3cebe24c:	927be802 	and	x2, x0, #0xffffffffffffffe0
/data/jenkins/workspace/GNU-toolchain/arm-10/src/newlib-cygwin/newlib/libc/machine/aarch64/strchr.S:93
    3cebe250:	4e040c90 	dup	v16.4s, w4
/data/jenkins/workspace/GNU-toolchain/arm-10/src/newlib-cygwin/newlib/libc/machine/aarch64/strchr.S:94
    3cebe254:	f2401003 	ands	x3, x0, #0x1f
/data/jenkins/workspace/GNU-toolchain/arm-10/src/newlib-cygwin/newlib/libc/machine/aarch64/strchr.S:95
    3cebe258:	4eb08607 	add	v7.4s, v16.4s, v16.4s
/data/jenkins/workspace/GNU-toolchain/arm-10/src/newlib-cygwin/newlib/libc/machine/aarch64/strchr.S:96
    3cebe25c:	540002a0 	b.eq	3cebe2b0 <strchr+0x70>  // b.none
/data/jenkins/workspace/GNU-toolchain/arm-10/src/newlib-cygwin/newlib/libc/machine/aarch64/strchr.S:102
    3cebe260:	4cdfa041 	ld1	{v1.16b, v2.16b}, [x2], #32
/data/jenkins/workspace/GNU-toolchain/arm-10/src/newlib-cygwin/newlib/libc/machine/aarch64/strchr.S:103
    3cebe264:	cb0303e3 	neg	x3, x3
/data/jenkins/workspace/GNU-toolchain/arm-10/src/newlib-cygwin/newlib/libc/machine/aarch64/strchr.S:104
    3cebe268:	4e209823 	cmeq	v3.16b, v1.16b, #0
/data/jenkins/workspace/GNU-toolchain/arm-10/src/newlib-cygwin/newlib/libc/machine/aarch64/strchr.S:105
    3cebe26c:	6e208c25 	cmeq	v5.16b, v1.16b, v0.16b
/data/jenkins/workspace/GNU-toolchain/arm-10/src/newlib-cygwin/newlib/libc/machine/aarch64/strchr.S:106
    3cebe270:	4e209844 	cmeq	v4.16b, v2.16b, #0
/data/jenkins/workspace/GNU-toolchain/arm-10/src/newlib-cygwin/newlib/libc/machine/aarch64/strchr.S:107
    3cebe274:	6e208c46 	cmeq	v6.16b, v2.16b, v0.16b
/data/jenkins/workspace/GNU-toolchain/arm-10/src/newlib-cygwin/newlib/libc/machine/aarch64/strchr.S:108
    3cebe278:	4e271c63 	and	v3.16b, v3.16b, v7.16b
/data/jenkins/workspace/GNU-toolchain/arm-10/src/newlib-cygwin/newlib/libc/machine/aarch64/strchr.S:109
    3cebe27c:	4e271c84 	and	v4.16b, v4.16b, v7.16b
/data/jenkins/workspace/GNU-toolchain/arm-10/src/newlib-cygwin/newlib/libc/machine/aarch64/strchr.S:110
    3cebe280:	4e301ca5 	and	v5.16b, v5.16b, v16.16b
/data/jenkins/workspace/GNU-toolchain/arm-10/src/newlib-cygwin/newlib/libc/machine/aarch64/strchr.S:111
    3cebe284:	4e301cc6 	and	v6.16b, v6.16b, v16.16b
/data/jenkins/workspace/GNU-toolchain/arm-10/src/newlib-cygwin/newlib/libc/machine/aarch64/strchr.S:112
    3cebe288:	4ea51c71 	orr	v17.16b, v3.16b, v5.16b
/data/jenkins/workspace/GNU-toolchain/arm-10/src/newlib-cygwin/newlib/libc/machine/aarch64/strchr.S:113
    3cebe28c:	4ea61c92 	orr	v18.16b, v4.16b, v6.16b
/data/jenkins/workspace/GNU-toolchain/arm-10/src/newlib-cygwin/newlib/libc/machine/aarch64/strchr.S:114
    3cebe290:	d37ff863 	lsl	x3, x3, #1
/data/jenkins/workspace/GNU-toolchain/arm-10/src/newlib-cygwin/newlib/libc/machine/aarch64/strchr.S:115
    3cebe294:	4e32be31 	addp	v17.16b, v17.16b, v18.16b
/data/jenkins/workspace/GNU-toolchain/arm-10/src/newlib-cygwin/newlib/libc/machine/aarch64/strchr.S:116
    3cebe298:	92800005 	mov	x5, #0xffffffffffffffff    	// #-1
/data/jenkins/workspace/GNU-toolchain/arm-10/src/newlib-cygwin/newlib/libc/machine/aarch64/strchr.S:117
    3cebe29c:	4e32be31 	addp	v17.16b, v17.16b, v18.16b
/data/jenkins/workspace/GNU-toolchain/arm-10/src/newlib-cygwin/newlib/libc/machine/aarch64/strchr.S:118
    3cebe2a0:	9ac324a3 	lsr	x3, x5, x3
/data/jenkins/workspace/GNU-toolchain/arm-10/src/newlib-cygwin/newlib/libc/machine/aarch64/strchr.S:120
    3cebe2a4:	4e083e25 	mov	x5, v17.d[0]
/data/jenkins/workspace/GNU-toolchain/arm-10/src/newlib-cygwin/newlib/libc/machine/aarch64/strchr.S:121
    3cebe2a8:	8a2300a3 	bic	x3, x5, x3
/data/jenkins/workspace/GNU-toolchain/arm-10/src/newlib-cygwin/newlib/libc/machine/aarch64/strchr.S:122
    3cebe2ac:	b50002a3 	cbnz	x3, 3cebe300 <strchr+0xc0>
/data/jenkins/workspace/GNU-toolchain/arm-10/src/newlib-cygwin/newlib/libc/machine/aarch64/strchr.S:125
    3cebe2b0:	4cdfa041 	ld1	{v1.16b, v2.16b}, [x2], #32
/data/jenkins/workspace/GNU-toolchain/arm-10/src/newlib-cygwin/newlib/libc/machine/aarch64/strchr.S:126
    3cebe2b4:	4e209823 	cmeq	v3.16b, v1.16b, #0
/data/jenkins/workspace/GNU-toolchain/arm-10/src/newlib-cygwin/newlib/libc/machine/aarch64/strchr.S:127
    3cebe2b8:	6e208c25 	cmeq	v5.16b, v1.16b, v0.16b
/data/jenkins/workspace/GNU-toolchain/arm-10/src/newlib-cygwin/newlib/libc/machine/aarch64/strchr.S:128
    3cebe2bc:	4e209844 	cmeq	v4.16b, v2.16b, #0
/data/jenkins/workspace/GNU-toolchain/arm-10/src/newlib-cygwin/newlib/libc/machine/aarch64/strchr.S:129
    3cebe2c0:	6e208c46 	cmeq	v6.16b, v2.16b, v0.16b
/data/jenkins/workspace/GNU-toolchain/arm-10/src/newlib-cygwin/newlib/libc/machine/aarch64/strchr.S:131
    3cebe2c4:	4ea51c71 	orr	v17.16b, v3.16b, v5.16b
/data/jenkins/workspace/GNU-toolchain/arm-10/src/newlib-cygwin/newlib/libc/machine/aarch64/strchr.S:132
    3cebe2c8:	4ea61c92 	orr	v18.16b, v4.16b, v6.16b
/data/jenkins/workspace/GNU-toolchain/arm-10/src/newlib-cygwin/newlib/libc/machine/aarch64/strchr.S:133
    3cebe2cc:	4eb21e31 	orr	v17.16b, v17.16b, v18.16b
/data/jenkins/workspace/GNU-toolchain/arm-10/src/newlib-cygwin/newlib/libc/machine/aarch64/strchr.S:134
    3cebe2d0:	4ef1be31 	addp	v17.2d, v17.2d, v17.2d
/data/jenkins/workspace/GNU-toolchain/arm-10/src/newlib-cygwin/newlib/libc/machine/aarch64/strchr.S:135
    3cebe2d4:	4e083e23 	mov	x3, v17.d[0]
/data/jenkins/workspace/GNU-toolchain/arm-10/src/newlib-cygwin/newlib/libc/machine/aarch64/strchr.S:136
    3cebe2d8:	b4fffec3 	cbz	x3, 3cebe2b0 <strchr+0x70>
/data/jenkins/workspace/GNU-toolchain/arm-10/src/newlib-cygwin/newlib/libc/machine/aarch64/strchr.S:140
    3cebe2dc:	4e271c63 	and	v3.16b, v3.16b, v7.16b
/data/jenkins/workspace/GNU-toolchain/arm-10/src/newlib-cygwin/newlib/libc/machine/aarch64/strchr.S:141
    3cebe2e0:	4e271c84 	and	v4.16b, v4.16b, v7.16b
/data/jenkins/workspace/GNU-toolchain/arm-10/src/newlib-cygwin/newlib/libc/machine/aarch64/strchr.S:142
    3cebe2e4:	4e301ca5 	and	v5.16b, v5.16b, v16.16b
/data/jenkins/workspace/GNU-toolchain/arm-10/src/newlib-cygwin/newlib/libc/machine/aarch64/strchr.S:143
    3cebe2e8:	4e301cc6 	and	v6.16b, v6.16b, v16.16b
/data/jenkins/workspace/GNU-toolchain/arm-10/src/newlib-cygwin/newlib/libc/machine/aarch64/strchr.S:144
    3cebe2ec:	4ea51c71 	orr	v17.16b, v3.16b, v5.16b
/data/jenkins/workspace/GNU-toolchain/arm-10/src/newlib-cygwin/newlib/libc/machine/aarch64/strchr.S:145
    3cebe2f0:	4ea61c92 	orr	v18.16b, v4.16b, v6.16b
/data/jenkins/workspace/GNU-toolchain/arm-10/src/newlib-cygwin/newlib/libc/machine/aarch64/strchr.S:146
    3cebe2f4:	4e32be31 	addp	v17.16b, v17.16b, v18.16b
/data/jenkins/workspace/GNU-toolchain/arm-10/src/newlib-cygwin/newlib/libc/machine/aarch64/strchr.S:147
    3cebe2f8:	4e32be31 	addp	v17.16b, v17.16b, v18.16b
/data/jenkins/workspace/GNU-toolchain/arm-10/src/newlib-cygwin/newlib/libc/machine/aarch64/strchr.S:149
    3cebe2fc:	4e083e23 	mov	x3, v17.d[0]
/data/jenkins/workspace/GNU-toolchain/arm-10/src/newlib-cygwin/newlib/libc/machine/aarch64/strchr.S:152
    3cebe300:	dac00063 	rbit	x3, x3
/data/jenkins/workspace/GNU-toolchain/arm-10/src/newlib-cygwin/newlib/libc/machine/aarch64/strchr.S:154
    3cebe304:	d1008042 	sub	x2, x2, #0x20
/data/jenkins/workspace/GNU-toolchain/arm-10/src/newlib-cygwin/newlib/libc/machine/aarch64/strchr.S:155
    3cebe308:	dac01063 	clz	x3, x3
/data/jenkins/workspace/GNU-toolchain/arm-10/src/newlib-cygwin/newlib/libc/machine/aarch64/strchr.S:158
    3cebe30c:	f240007f 	tst	x3, #0x1
/data/jenkins/workspace/GNU-toolchain/arm-10/src/newlib-cygwin/newlib/libc/machine/aarch64/strchr.S:159
    3cebe310:	8b430440 	add	x0, x2, x3, lsr #1
/data/jenkins/workspace/GNU-toolchain/arm-10/src/newlib-cygwin/newlib/libc/machine/aarch64/strchr.S:160
    3cebe314:	9a9f0000 	csel	x0, x0, xzr, eq  // eq = none
/data/jenkins/workspace/GNU-toolchain/arm-10/src/newlib-cygwin/newlib/libc/machine/aarch64/strchr.S:161
    3cebe318:	d65f03c0 	ret
	...

000000003cebe340 <strcmp>:
strcmp():
/data/jenkins/workspace/GNU-toolchain/arm-10/src/newlib-cygwin/newlib/libc/machine/aarch64/strcmp.S:71
    3cebe340:	ca010007 	eor	x7, x0, x1
/data/jenkins/workspace/GNU-toolchain/arm-10/src/newlib-cygwin/newlib/libc/machine/aarch64/strcmp.S:72
    3cebe344:	b200c3ea 	mov	x10, #0x101010101010101     	// #72340172838076673
/data/jenkins/workspace/GNU-toolchain/arm-10/src/newlib-cygwin/newlib/libc/machine/aarch64/strcmp.S:73
    3cebe348:	f24008ff 	tst	x7, #0x7
/data/jenkins/workspace/GNU-toolchain/arm-10/src/newlib-cygwin/newlib/libc/machine/aarch64/strcmp.S:74
    3cebe34c:	540003e1 	b.ne	3cebe3c8 <strcmp+0x88>  // b.any
/data/jenkins/workspace/GNU-toolchain/arm-10/src/newlib-cygwin/newlib/libc/machine/aarch64/strcmp.S:75
    3cebe350:	f2400807 	ands	x7, x0, #0x7
/data/jenkins/workspace/GNU-toolchain/arm-10/src/newlib-cygwin/newlib/libc/machine/aarch64/strcmp.S:76
    3cebe354:	54000241 	b.ne	3cebe39c <strcmp+0x5c>  // b.any
/data/jenkins/workspace/GNU-toolchain/arm-10/src/newlib-cygwin/newlib/libc/machine/aarch64/strcmp.S:81
    3cebe358:	f8408402 	ldr	x2, [x0], #8
/data/jenkins/workspace/GNU-toolchain/arm-10/src/newlib-cygwin/newlib/libc/machine/aarch64/strcmp.S:82
    3cebe35c:	f8408423 	ldr	x3, [x1], #8
/data/jenkins/workspace/GNU-toolchain/arm-10/src/newlib-cygwin/newlib/libc/machine/aarch64/strcmp.S:84
    3cebe360:	cb0a0047 	sub	x7, x2, x10
/data/jenkins/workspace/GNU-toolchain/arm-10/src/newlib-cygwin/newlib/libc/machine/aarch64/strcmp.S:85
    3cebe364:	b200d848 	orr	x8, x2, #0x7f7f7f7f7f7f7f7f
/data/jenkins/workspace/GNU-toolchain/arm-10/src/newlib-cygwin/newlib/libc/machine/aarch64/strcmp.S:86
    3cebe368:	ca030045 	eor	x5, x2, x3
/data/jenkins/workspace/GNU-toolchain/arm-10/src/newlib-cygwin/newlib/libc/machine/aarch64/strcmp.S:87
    3cebe36c:	8a2800e4 	bic	x4, x7, x8
/data/jenkins/workspace/GNU-toolchain/arm-10/src/newlib-cygwin/newlib/libc/machine/aarch64/strcmp.S:88
    3cebe370:	aa0400a6 	orr	x6, x5, x4
/data/jenkins/workspace/GNU-toolchain/arm-10/src/newlib-cygwin/newlib/libc/machine/aarch64/strcmp.S:89
    3cebe374:	b4ffff26 	cbz	x6, 3cebe358 <strcmp+0x18>
/data/jenkins/workspace/GNU-toolchain/arm-10/src/newlib-cygwin/newlib/libc/machine/aarch64/strcmp.S:94
    3cebe378:	dac00cc6 	rev	x6, x6
/data/jenkins/workspace/GNU-toolchain/arm-10/src/newlib-cygwin/newlib/libc/machine/aarch64/strcmp.S:95
    3cebe37c:	dac00c42 	rev	x2, x2
/data/jenkins/workspace/GNU-toolchain/arm-10/src/newlib-cygwin/newlib/libc/machine/aarch64/strcmp.S:100
    3cebe380:	dac010cb 	clz	x11, x6
/data/jenkins/workspace/GNU-toolchain/arm-10/src/newlib-cygwin/newlib/libc/machine/aarch64/strcmp.S:101
    3cebe384:	dac00c63 	rev	x3, x3
/data/jenkins/workspace/GNU-toolchain/arm-10/src/newlib-cygwin/newlib/libc/machine/aarch64/strcmp.S:102
    3cebe388:	9acb2042 	lsl	x2, x2, x11
/data/jenkins/workspace/GNU-toolchain/arm-10/src/newlib-cygwin/newlib/libc/machine/aarch64/strcmp.S:103
    3cebe38c:	9acb2063 	lsl	x3, x3, x11
/data/jenkins/workspace/GNU-toolchain/arm-10/src/newlib-cygwin/newlib/libc/machine/aarch64/strcmp.S:106
    3cebe390:	d378fc42 	lsr	x2, x2, #56
/data/jenkins/workspace/GNU-toolchain/arm-10/src/newlib-cygwin/newlib/libc/machine/aarch64/strcmp.S:107
    3cebe394:	cb43e040 	sub	x0, x2, x3, lsr #56
/data/jenkins/workspace/GNU-toolchain/arm-10/src/newlib-cygwin/newlib/libc/machine/aarch64/strcmp.S:108
    3cebe398:	d65f03c0 	ret
/data/jenkins/workspace/GNU-toolchain/arm-10/src/newlib-cygwin/newlib/libc/machine/aarch64/strcmp.S:147
    3cebe39c:	927df000 	and	x0, x0, #0xfffffffffffffff8
/data/jenkins/workspace/GNU-toolchain/arm-10/src/newlib-cygwin/newlib/libc/machine/aarch64/strcmp.S:148
    3cebe3a0:	927df021 	and	x1, x1, #0xfffffffffffffff8
/data/jenkins/workspace/GNU-toolchain/arm-10/src/newlib-cygwin/newlib/libc/machine/aarch64/strcmp.S:149
    3cebe3a4:	d37df0e7 	lsl	x7, x7, #3
/data/jenkins/workspace/GNU-toolchain/arm-10/src/newlib-cygwin/newlib/libc/machine/aarch64/strcmp.S:150
    3cebe3a8:	f8408402 	ldr	x2, [x0], #8
/data/jenkins/workspace/GNU-toolchain/arm-10/src/newlib-cygwin/newlib/libc/machine/aarch64/strcmp.S:151
    3cebe3ac:	cb0703e7 	neg	x7, x7
/data/jenkins/workspace/GNU-toolchain/arm-10/src/newlib-cygwin/newlib/libc/machine/aarch64/strcmp.S:152
    3cebe3b0:	f8408423 	ldr	x3, [x1], #8
/data/jenkins/workspace/GNU-toolchain/arm-10/src/newlib-cygwin/newlib/libc/machine/aarch64/strcmp.S:153
    3cebe3b4:	92800008 	mov	x8, #0xffffffffffffffff    	// #-1
/data/jenkins/workspace/GNU-toolchain/arm-10/src/newlib-cygwin/newlib/libc/machine/aarch64/strcmp.S:159
    3cebe3b8:	9ac72508 	lsr	x8, x8, x7
/data/jenkins/workspace/GNU-toolchain/arm-10/src/newlib-cygwin/newlib/libc/machine/aarch64/strcmp.S:161
    3cebe3bc:	aa080042 	orr	x2, x2, x8
/data/jenkins/workspace/GNU-toolchain/arm-10/src/newlib-cygwin/newlib/libc/machine/aarch64/strcmp.S:162
    3cebe3c0:	aa080063 	orr	x3, x3, x8
/data/jenkins/workspace/GNU-toolchain/arm-10/src/newlib-cygwin/newlib/libc/machine/aarch64/strcmp.S:163
    3cebe3c4:	17ffffe7 	b	3cebe360 <strcmp+0x20>
/data/jenkins/workspace/GNU-toolchain/arm-10/src/newlib-cygwin/newlib/libc/machine/aarch64/strcmp.S:169
    3cebe3c8:	f240081f 	tst	x0, #0x7
/data/jenkins/workspace/GNU-toolchain/arm-10/src/newlib-cygwin/newlib/libc/machine/aarch64/strcmp.S:170
    3cebe3cc:	54000100 	b.eq	3cebe3ec <strcmp+0xac>  // b.none
/data/jenkins/workspace/GNU-toolchain/arm-10/src/newlib-cygwin/newlib/libc/machine/aarch64/strcmp.S:172
    3cebe3d0:	38401402 	ldrb	w2, [x0], #1
/data/jenkins/workspace/GNU-toolchain/arm-10/src/newlib-cygwin/newlib/libc/machine/aarch64/strcmp.S:173
    3cebe3d4:	38401423 	ldrb	w3, [x1], #1
/data/jenkins/workspace/GNU-toolchain/arm-10/src/newlib-cygwin/newlib/libc/machine/aarch64/strcmp.S:174
    3cebe3d8:	7100045f 	cmp	w2, #0x1
/data/jenkins/workspace/GNU-toolchain/arm-10/src/newlib-cygwin/newlib/libc/machine/aarch64/strcmp.S:175
    3cebe3dc:	7a432040 	ccmp	w2, w3, #0x0, cs  // cs = hs, nlast
/data/jenkins/workspace/GNU-toolchain/arm-10/src/newlib-cygwin/newlib/libc/machine/aarch64/strcmp.S:176
    3cebe3e0:	540001e1 	b.ne	3cebe41c <strcmp+0xdc>  // b.any
/data/jenkins/workspace/GNU-toolchain/arm-10/src/newlib-cygwin/newlib/libc/machine/aarch64/strcmp.S:177
    3cebe3e4:	f240081f 	tst	x0, #0x7
/data/jenkins/workspace/GNU-toolchain/arm-10/src/newlib-cygwin/newlib/libc/machine/aarch64/strcmp.S:178
    3cebe3e8:	54ffff41 	b.ne	3cebe3d0 <strcmp+0x90>  // b.any
/data/jenkins/workspace/GNU-toolchain/arm-10/src/newlib-cygwin/newlib/libc/machine/aarch64/strcmp.S:183
    3cebe3ec:	927d2027 	and	x7, x1, #0xff8
/data/jenkins/workspace/GNU-toolchain/arm-10/src/newlib-cygwin/newlib/libc/machine/aarch64/strcmp.S:184
    3cebe3f0:	d27d20e7 	eor	x7, x7, #0xff8
/data/jenkins/workspace/GNU-toolchain/arm-10/src/newlib-cygwin/newlib/libc/machine/aarch64/strcmp.S:185
    3cebe3f4:	b4fffee7 	cbz	x7, 3cebe3d0 <strcmp+0x90>
/data/jenkins/workspace/GNU-toolchain/arm-10/src/newlib-cygwin/newlib/libc/machine/aarch64/strcmp.S:186
    3cebe3f8:	f8408402 	ldr	x2, [x0], #8
/data/jenkins/workspace/GNU-toolchain/arm-10/src/newlib-cygwin/newlib/libc/machine/aarch64/strcmp.S:187
    3cebe3fc:	f8408423 	ldr	x3, [x1], #8
/data/jenkins/workspace/GNU-toolchain/arm-10/src/newlib-cygwin/newlib/libc/machine/aarch64/strcmp.S:189
    3cebe400:	cb0a0047 	sub	x7, x2, x10
/data/jenkins/workspace/GNU-toolchain/arm-10/src/newlib-cygwin/newlib/libc/machine/aarch64/strcmp.S:190
    3cebe404:	b200d848 	orr	x8, x2, #0x7f7f7f7f7f7f7f7f
/data/jenkins/workspace/GNU-toolchain/arm-10/src/newlib-cygwin/newlib/libc/machine/aarch64/strcmp.S:191
    3cebe408:	ca030045 	eor	x5, x2, x3
/data/jenkins/workspace/GNU-toolchain/arm-10/src/newlib-cygwin/newlib/libc/machine/aarch64/strcmp.S:192
    3cebe40c:	8a2800e4 	bic	x4, x7, x8
/data/jenkins/workspace/GNU-toolchain/arm-10/src/newlib-cygwin/newlib/libc/machine/aarch64/strcmp.S:193
    3cebe410:	aa0400a6 	orr	x6, x5, x4
/data/jenkins/workspace/GNU-toolchain/arm-10/src/newlib-cygwin/newlib/libc/machine/aarch64/strcmp.S:194
    3cebe414:	b4fffec6 	cbz	x6, 3cebe3ec <strcmp+0xac>
/data/jenkins/workspace/GNU-toolchain/arm-10/src/newlib-cygwin/newlib/libc/machine/aarch64/strcmp.S:195
    3cebe418:	17ffffd8 	b	3cebe378 <strcmp+0x38>
/data/jenkins/workspace/GNU-toolchain/arm-10/src/newlib-cygwin/newlib/libc/machine/aarch64/strcmp.S:198
    3cebe41c:	cb030040 	sub	x0, x2, x3
/data/jenkins/workspace/GNU-toolchain/arm-10/src/newlib-cygwin/newlib/libc/machine/aarch64/strcmp.S:199
    3cebe420:	d65f03c0 	ret
	...

000000003cebe440 <strcpy>:
strcpy():
/data/jenkins/workspace/GNU-toolchain/arm-10/src/newlib-cygwin/newlib/libc/machine/aarch64/strcpy.S:125
    3cebe440:	92402c29 	and	x9, x1, #0xfff
/data/jenkins/workspace/GNU-toolchain/arm-10/src/newlib-cygwin/newlib/libc/machine/aarch64/strcpy.S:126
    3cebe444:	b200c3ec 	mov	x12, #0x101010101010101     	// #72340172838076673
/data/jenkins/workspace/GNU-toolchain/arm-10/src/newlib-cygwin/newlib/libc/machine/aarch64/strcpy.S:127
    3cebe448:	92400c31 	and	x17, x1, #0xf
/data/jenkins/workspace/GNU-toolchain/arm-10/src/newlib-cygwin/newlib/libc/machine/aarch64/strcpy.S:128
    3cebe44c:	f13fc13f 	cmp	x9, #0xff0
/data/jenkins/workspace/GNU-toolchain/arm-10/src/newlib-cygwin/newlib/libc/machine/aarch64/strcpy.S:129
    3cebe450:	cb1103e8 	neg	x8, x17
/data/jenkins/workspace/GNU-toolchain/arm-10/src/newlib-cygwin/newlib/libc/machine/aarch64/strcpy.S:134
    3cebe454:	540008cc 	b.gt	3cebe56c <strcpy+0x12c>
/data/jenkins/workspace/GNU-toolchain/arm-10/src/newlib-cygwin/newlib/libc/machine/aarch64/strcpy.S:137
    3cebe458:	a9401424 	ldp	x4, x5, [x1]
/data/jenkins/workspace/GNU-toolchain/arm-10/src/newlib-cygwin/newlib/libc/machine/aarch64/strcpy.S:153
    3cebe45c:	cb0c0088 	sub	x8, x4, x12
/data/jenkins/workspace/GNU-toolchain/arm-10/src/newlib-cygwin/newlib/libc/machine/aarch64/strcpy.S:154
    3cebe460:	b200d889 	orr	x9, x4, #0x7f7f7f7f7f7f7f7f
/data/jenkins/workspace/GNU-toolchain/arm-10/src/newlib-cygwin/newlib/libc/machine/aarch64/strcpy.S:155
    3cebe464:	ea290106 	bics	x6, x8, x9
/data/jenkins/workspace/GNU-toolchain/arm-10/src/newlib-cygwin/newlib/libc/machine/aarch64/strcpy.S:156
    3cebe468:	540001c1 	b.ne	3cebe4a0 <strcpy+0x60>  // b.any
/data/jenkins/workspace/GNU-toolchain/arm-10/src/newlib-cygwin/newlib/libc/machine/aarch64/strcpy.S:157
    3cebe46c:	cb0c00aa 	sub	x10, x5, x12
/data/jenkins/workspace/GNU-toolchain/arm-10/src/newlib-cygwin/newlib/libc/machine/aarch64/strcpy.S:158
    3cebe470:	b200d8ab 	orr	x11, x5, #0x7f7f7f7f7f7f7f7f
/data/jenkins/workspace/GNU-toolchain/arm-10/src/newlib-cygwin/newlib/libc/machine/aarch64/strcpy.S:160
    3cebe474:	ea2b0147 	bics	x7, x10, x11
/data/jenkins/workspace/GNU-toolchain/arm-10/src/newlib-cygwin/newlib/libc/machine/aarch64/strcpy.S:161
    3cebe478:	54000440 	b.eq	3cebe500 <strcpy+0xc0>  // b.none
/data/jenkins/workspace/GNU-toolchain/arm-10/src/newlib-cygwin/newlib/libc/machine/aarch64/strcpy.S:167
    3cebe47c:	dac00ce7 	rev	x7, x7
/data/jenkins/workspace/GNU-toolchain/arm-10/src/newlib-cygwin/newlib/libc/machine/aarch64/strcpy.S:168
    3cebe480:	dac010ef 	clz	x15, x7
/data/jenkins/workspace/GNU-toolchain/arm-10/src/newlib-cygwin/newlib/libc/machine/aarch64/strcpy.S:169
    3cebe484:	d2800709 	mov	x9, #0x38                  	// #56
/data/jenkins/workspace/GNU-toolchain/arm-10/src/newlib-cygwin/newlib/libc/machine/aarch64/strcpy.S:170
    3cebe488:	8b4f0c03 	add	x3, x0, x15, lsr #3
/data/jenkins/workspace/GNU-toolchain/arm-10/src/newlib-cygwin/newlib/libc/machine/aarch64/strcpy.S:171
    3cebe48c:	cb0f012f 	sub	x15, x9, x15
/data/jenkins/workspace/GNU-toolchain/arm-10/src/newlib-cygwin/newlib/libc/machine/aarch64/strcpy.S:175
    3cebe490:	9acf20a5 	lsl	x5, x5, x15
/data/jenkins/workspace/GNU-toolchain/arm-10/src/newlib-cygwin/newlib/libc/machine/aarch64/strcpy.S:177
    3cebe494:	f8001065 	stur	x5, [x3, #1]
/data/jenkins/workspace/GNU-toolchain/arm-10/src/newlib-cygwin/newlib/libc/machine/aarch64/strcpy.S:178
    3cebe498:	f9000004 	str	x4, [x0]
/data/jenkins/workspace/GNU-toolchain/arm-10/src/newlib-cygwin/newlib/libc/machine/aarch64/strcpy.S:182
    3cebe49c:	d65f03c0 	ret
/data/jenkins/workspace/GNU-toolchain/arm-10/src/newlib-cygwin/newlib/libc/machine/aarch64/strcpy.S:185
    3cebe4a0:	dac00cc6 	rev	x6, x6
/data/jenkins/workspace/GNU-toolchain/arm-10/src/newlib-cygwin/newlib/libc/machine/aarch64/strcpy.S:186
    3cebe4a4:	dac010cf 	clz	x15, x6
/data/jenkins/workspace/GNU-toolchain/arm-10/src/newlib-cygwin/newlib/libc/machine/aarch64/strcpy.S:187
    3cebe4a8:	8b4f0c03 	add	x3, x0, x15, lsr #3
/data/jenkins/workspace/GNU-toolchain/arm-10/src/newlib-cygwin/newlib/libc/machine/aarch64/strcpy.S:188
    3cebe4ac:	f10061e9 	subs	x9, x15, #0x18
/data/jenkins/workspace/GNU-toolchain/arm-10/src/newlib-cygwin/newlib/libc/machine/aarch64/strcpy.S:189
    3cebe4b0:	540000ab 	b.lt	3cebe4c4 <strcpy+0x84>  // b.tstop
/data/jenkins/workspace/GNU-toolchain/arm-10/src/newlib-cygwin/newlib/libc/machine/aarch64/strcpy.S:196
    3cebe4b4:	9ac92485 	lsr	x5, x4, x9
/data/jenkins/workspace/GNU-toolchain/arm-10/src/newlib-cygwin/newlib/libc/machine/aarch64/strcpy.S:199
    3cebe4b8:	b81fd065 	stur	w5, [x3, #-3]
/data/jenkins/workspace/GNU-toolchain/arm-10/src/newlib-cygwin/newlib/libc/machine/aarch64/strcpy.S:200
    3cebe4bc:	b9000004 	str	w4, [x0]
/data/jenkins/workspace/GNU-toolchain/arm-10/src/newlib-cygwin/newlib/libc/machine/aarch64/strcpy.S:204
    3cebe4c0:	d65f03c0 	ret
/data/jenkins/workspace/GNU-toolchain/arm-10/src/newlib-cygwin/newlib/libc/machine/aarch64/strcpy.S:206
    3cebe4c4:	b400004f 	cbz	x15, 3cebe4cc <strcpy+0x8c>
/data/jenkins/workspace/GNU-toolchain/arm-10/src/newlib-cygwin/newlib/libc/machine/aarch64/strcpy.S:211
    3cebe4c8:	79000004 	strh	w4, [x0]
/data/jenkins/workspace/GNU-toolchain/arm-10/src/newlib-cygwin/newlib/libc/machine/aarch64/strcpy.S:215
    3cebe4cc:	3900007f 	strb	wzr, [x3]
/data/jenkins/workspace/GNU-toolchain/arm-10/src/newlib-cygwin/newlib/libc/machine/aarch64/strcpy.S:219
    3cebe4d0:	d65f03c0 	ret
    3cebe4d4:	d503201f 	nop
    3cebe4d8:	d503201f 	nop
    3cebe4dc:	d503201f 	nop
    3cebe4e0:	d503201f 	nop
    3cebe4e4:	d503201f 	nop
    3cebe4e8:	d503201f 	nop
    3cebe4ec:	d503201f 	nop
    3cebe4f0:	d503201f 	nop
    3cebe4f4:	d503201f 	nop
    3cebe4f8:	d503201f 	nop
    3cebe4fc:	d503201f 	nop
/data/jenkins/workspace/GNU-toolchain/arm-10/src/newlib-cygwin/newlib/libc/machine/aarch64/strcpy.S:225
    3cebe500:	d1004231 	sub	x17, x17, #0x10
/data/jenkins/workspace/GNU-toolchain/arm-10/src/newlib-cygwin/newlib/libc/machine/aarch64/strcpy.S:226
    3cebe504:	a9001404 	stp	x4, x5, [x0]
/data/jenkins/workspace/GNU-toolchain/arm-10/src/newlib-cygwin/newlib/libc/machine/aarch64/strcpy.S:227
    3cebe508:	cb110022 	sub	x2, x1, x17
/data/jenkins/workspace/GNU-toolchain/arm-10/src/newlib-cygwin/newlib/libc/machine/aarch64/strcpy.S:228
    3cebe50c:	cb110003 	sub	x3, x0, x17
/data/jenkins/workspace/GNU-toolchain/arm-10/src/newlib-cygwin/newlib/libc/machine/aarch64/strcpy.S:229
    3cebe510:	14000002 	b	3cebe518 <strcpy+0xd8>
/data/jenkins/workspace/GNU-toolchain/arm-10/src/newlib-cygwin/newlib/libc/machine/aarch64/strcpy.S:236
    3cebe514:	a8811464 	stp	x4, x5, [x3], #16
/data/jenkins/workspace/GNU-toolchain/arm-10/src/newlib-cygwin/newlib/libc/machine/aarch64/strcpy.S:238
    3cebe518:	a8c11444 	ldp	x4, x5, [x2], #16
/data/jenkins/workspace/GNU-toolchain/arm-10/src/newlib-cygwin/newlib/libc/machine/aarch64/strcpy.S:239
    3cebe51c:	cb0c0088 	sub	x8, x4, x12
/data/jenkins/workspace/GNU-toolchain/arm-10/src/newlib-cygwin/newlib/libc/machine/aarch64/strcpy.S:240
    3cebe520:	b200d889 	orr	x9, x4, #0x7f7f7f7f7f7f7f7f
/data/jenkins/workspace/GNU-toolchain/arm-10/src/newlib-cygwin/newlib/libc/machine/aarch64/strcpy.S:241
    3cebe524:	cb0c00aa 	sub	x10, x5, x12
/data/jenkins/workspace/GNU-toolchain/arm-10/src/newlib-cygwin/newlib/libc/machine/aarch64/strcpy.S:242
    3cebe528:	b200d8ab 	orr	x11, x5, #0x7f7f7f7f7f7f7f7f
/data/jenkins/workspace/GNU-toolchain/arm-10/src/newlib-cygwin/newlib/libc/machine/aarch64/strcpy.S:243
    3cebe52c:	8a290106 	bic	x6, x8, x9
/data/jenkins/workspace/GNU-toolchain/arm-10/src/newlib-cygwin/newlib/libc/machine/aarch64/strcpy.S:244
    3cebe530:	ea2b0147 	bics	x7, x10, x11
/data/jenkins/workspace/GNU-toolchain/arm-10/src/newlib-cygwin/newlib/libc/machine/aarch64/strcpy.S:245
    3cebe534:	fa4008c0 	ccmp	x6, #0x0, #0x0, eq  // eq = none
/data/jenkins/workspace/GNU-toolchain/arm-10/src/newlib-cygwin/newlib/libc/machine/aarch64/strcpy.S:246
    3cebe538:	54fffee0 	b.eq	3cebe514 <strcpy+0xd4>  // b.none
/data/jenkins/workspace/GNU-toolchain/arm-10/src/newlib-cygwin/newlib/libc/machine/aarch64/strcpy.S:251
    3cebe53c:	f10000df 	cmp	x6, #0x0
/data/jenkins/workspace/GNU-toolchain/arm-10/src/newlib-cygwin/newlib/libc/machine/aarch64/strcpy.S:263
    3cebe540:	9a8710c6 	csel	x6, x6, x7, ne  // ne = any
/data/jenkins/workspace/GNU-toolchain/arm-10/src/newlib-cygwin/newlib/libc/machine/aarch64/strcpy.S:265
    3cebe544:	dac00cc6 	rev	x6, x6
/data/jenkins/workspace/GNU-toolchain/arm-10/src/newlib-cygwin/newlib/libc/machine/aarch64/strcpy.S:266
    3cebe548:	dac010cf 	clz	x15, x6
/data/jenkins/workspace/GNU-toolchain/arm-10/src/newlib-cygwin/newlib/libc/machine/aarch64/strcpy.S:267
    3cebe54c:	910121e8 	add	x8, x15, #0x48
/data/jenkins/workspace/GNU-toolchain/arm-10/src/newlib-cygwin/newlib/libc/machine/aarch64/strcpy.S:268
    3cebe550:	910021ef 	add	x15, x15, #0x8
/data/jenkins/workspace/GNU-toolchain/arm-10/src/newlib-cygwin/newlib/libc/machine/aarch64/strcpy.S:269
    3cebe554:	9a8811ef 	csel	x15, x15, x8, ne  // ne = any
/data/jenkins/workspace/GNU-toolchain/arm-10/src/newlib-cygwin/newlib/libc/machine/aarch64/strcpy.S:270
    3cebe558:	8b4f0c42 	add	x2, x2, x15, lsr #3
/data/jenkins/workspace/GNU-toolchain/arm-10/src/newlib-cygwin/newlib/libc/machine/aarch64/strcpy.S:271
    3cebe55c:	8b4f0c63 	add	x3, x3, x15, lsr #3
/data/jenkins/workspace/GNU-toolchain/arm-10/src/newlib-cygwin/newlib/libc/machine/aarch64/strcpy.S:272
    3cebe560:	a97e1444 	ldp	x4, x5, [x2, #-32]
/data/jenkins/workspace/GNU-toolchain/arm-10/src/newlib-cygwin/newlib/libc/machine/aarch64/strcpy.S:273
    3cebe564:	a93f1464 	stp	x4, x5, [x3, #-16]
/data/jenkins/workspace/GNU-toolchain/arm-10/src/newlib-cygwin/newlib/libc/machine/aarch64/strcpy.S:277
    3cebe568:	d65f03c0 	ret
/data/jenkins/workspace/GNU-toolchain/arm-10/src/newlib-cygwin/newlib/libc/machine/aarch64/strcpy.S:280
    3cebe56c:	927cec22 	and	x2, x1, #0xfffffffffffffff0
/data/jenkins/workspace/GNU-toolchain/arm-10/src/newlib-cygwin/newlib/libc/machine/aarch64/strcpy.S:284
    3cebe570:	a9401444 	ldp	x4, x5, [x2]
/data/jenkins/workspace/GNU-toolchain/arm-10/src/newlib-cygwin/newlib/libc/machine/aarch64/strcpy.S:285
    3cebe574:	d37df108 	lsl	x8, x8, #3
/data/jenkins/workspace/GNU-toolchain/arm-10/src/newlib-cygwin/newlib/libc/machine/aarch64/strcpy.S:286
    3cebe578:	f2400a3f 	tst	x17, #0x7
/data/jenkins/workspace/GNU-toolchain/arm-10/src/newlib-cygwin/newlib/libc/machine/aarch64/strcpy.S:287
    3cebe57c:	da9f03e9 	csetm	x9, ne  // ne = any
/data/jenkins/workspace/GNU-toolchain/arm-10/src/newlib-cygwin/newlib/libc/machine/aarch64/strcpy.S:291
    3cebe580:	9ac82529 	lsr	x9, x9, x8
/data/jenkins/workspace/GNU-toolchain/arm-10/src/newlib-cygwin/newlib/libc/machine/aarch64/strcpy.S:293
    3cebe584:	aa090084 	orr	x4, x4, x9
/data/jenkins/workspace/GNU-toolchain/arm-10/src/newlib-cygwin/newlib/libc/machine/aarch64/strcpy.S:294
    3cebe588:	aa0900ae 	orr	x14, x5, x9
/data/jenkins/workspace/GNU-toolchain/arm-10/src/newlib-cygwin/newlib/libc/machine/aarch64/strcpy.S:295
    3cebe58c:	f100223f 	cmp	x17, #0x8
/data/jenkins/workspace/GNU-toolchain/arm-10/src/newlib-cygwin/newlib/libc/machine/aarch64/strcpy.S:296
    3cebe590:	da9fb084 	csinv	x4, x4, xzr, lt  // lt = tstop
/data/jenkins/workspace/GNU-toolchain/arm-10/src/newlib-cygwin/newlib/libc/machine/aarch64/strcpy.S:297
    3cebe594:	9a8eb0a5 	csel	x5, x5, x14, lt  // lt = tstop
/data/jenkins/workspace/GNU-toolchain/arm-10/src/newlib-cygwin/newlib/libc/machine/aarch64/strcpy.S:298
    3cebe598:	cb0c0088 	sub	x8, x4, x12
/data/jenkins/workspace/GNU-toolchain/arm-10/src/newlib-cygwin/newlib/libc/machine/aarch64/strcpy.S:299
    3cebe59c:	b200d889 	orr	x9, x4, #0x7f7f7f7f7f7f7f7f
/data/jenkins/workspace/GNU-toolchain/arm-10/src/newlib-cygwin/newlib/libc/machine/aarch64/strcpy.S:300
    3cebe5a0:	cb0c00aa 	sub	x10, x5, x12
/data/jenkins/workspace/GNU-toolchain/arm-10/src/newlib-cygwin/newlib/libc/machine/aarch64/strcpy.S:301
    3cebe5a4:	b200d8ab 	orr	x11, x5, #0x7f7f7f7f7f7f7f7f
/data/jenkins/workspace/GNU-toolchain/arm-10/src/newlib-cygwin/newlib/libc/machine/aarch64/strcpy.S:302
    3cebe5a8:	8a290106 	bic	x6, x8, x9
/data/jenkins/workspace/GNU-toolchain/arm-10/src/newlib-cygwin/newlib/libc/machine/aarch64/strcpy.S:303
    3cebe5ac:	ea2b0147 	bics	x7, x10, x11
/data/jenkins/workspace/GNU-toolchain/arm-10/src/newlib-cygwin/newlib/libc/machine/aarch64/strcpy.S:304
    3cebe5b0:	fa4008c0 	ccmp	x6, #0x0, #0x0, eq  // eq = none
/data/jenkins/workspace/GNU-toolchain/arm-10/src/newlib-cygwin/newlib/libc/machine/aarch64/strcpy.S:305
    3cebe5b4:	54fff520 	b.eq	3cebe458 <strcpy+0x18>  // b.none
/data/jenkins/workspace/GNU-toolchain/arm-10/src/newlib-cygwin/newlib/libc/machine/aarch64/strcpy.S:308
    3cebe5b8:	d37df228 	lsl	x8, x17, #3
/data/jenkins/workspace/GNU-toolchain/arm-10/src/newlib-cygwin/newlib/libc/machine/aarch64/strcpy.S:309
    3cebe5bc:	cb110fe9 	neg	x9, x17, lsl #3
/data/jenkins/workspace/GNU-toolchain/arm-10/src/newlib-cygwin/newlib/libc/machine/aarch64/strcpy.S:324
    3cebe5c0:	9ac8248d 	lsr	x13, x4, x8
/data/jenkins/workspace/GNU-toolchain/arm-10/src/newlib-cygwin/newlib/libc/machine/aarch64/strcpy.S:325
    3cebe5c4:	9ac920ab 	lsl	x11, x5, x9
/data/jenkins/workspace/GNU-toolchain/arm-10/src/newlib-cygwin/newlib/libc/machine/aarch64/strcpy.S:326
    3cebe5c8:	9ac824a5 	lsr	x5, x5, x8
/data/jenkins/workspace/GNU-toolchain/arm-10/src/newlib-cygwin/newlib/libc/machine/aarch64/strcpy.S:327
    3cebe5cc:	aa0d016b 	orr	x11, x11, x13
/data/jenkins/workspace/GNU-toolchain/arm-10/src/newlib-cygwin/newlib/libc/machine/aarch64/strcpy.S:328
    3cebe5d0:	f100223f 	cmp	x17, #0x8
/data/jenkins/workspace/GNU-toolchain/arm-10/src/newlib-cygwin/newlib/libc/machine/aarch64/strcpy.S:329
    3cebe5d4:	9a85b164 	csel	x4, x11, x5, lt  // lt = tstop
/data/jenkins/workspace/GNU-toolchain/arm-10/src/newlib-cygwin/newlib/libc/machine/aarch64/strcpy.S:330
    3cebe5d8:	cb0c0088 	sub	x8, x4, x12
/data/jenkins/workspace/GNU-toolchain/arm-10/src/newlib-cygwin/newlib/libc/machine/aarch64/strcpy.S:331
    3cebe5dc:	b200d889 	orr	x9, x4, #0x7f7f7f7f7f7f7f7f
/data/jenkins/workspace/GNU-toolchain/arm-10/src/newlib-cygwin/newlib/libc/machine/aarch64/strcpy.S:332
    3cebe5e0:	cb0c00aa 	sub	x10, x5, x12
/data/jenkins/workspace/GNU-toolchain/arm-10/src/newlib-cygwin/newlib/libc/machine/aarch64/strcpy.S:333
    3cebe5e4:	b200d8ab 	orr	x11, x5, #0x7f7f7f7f7f7f7f7f
/data/jenkins/workspace/GNU-toolchain/arm-10/src/newlib-cygwin/newlib/libc/machine/aarch64/strcpy.S:335
    3cebe5e8:	8a290106 	bic	x6, x8, x9
/data/jenkins/workspace/GNU-toolchain/arm-10/src/newlib-cygwin/newlib/libc/machine/aarch64/strcpy.S:336
    3cebe5ec:	b5fff5a6 	cbnz	x6, 3cebe4a0 <strcpy+0x60>
/data/jenkins/workspace/GNU-toolchain/arm-10/src/newlib-cygwin/newlib/libc/machine/aarch64/strcpy.S:337
    3cebe5f0:	8a2b0147 	bic	x7, x10, x11
/data/jenkins/workspace/GNU-toolchain/arm-10/src/newlib-cygwin/newlib/libc/machine/aarch64/strcpy.S:338
    3cebe5f4:	17ffffa2 	b	3cebe47c <strcpy+0x3c>

000000003cebe5f8 <memchr>:
memchr():
/data/jenkins/workspace/GNU-toolchain/arm-10/src/newlib-cygwin/newlib/libc/machine/aarch64/memchr.S:83
    3cebe5f8:	b4000682 	cbz	x2, 3cebe6c8 <memchr+0xd0>
/data/jenkins/workspace/GNU-toolchain/arm-10/src/newlib-cygwin/newlib/libc/machine/aarch64/memchr.S:88
    3cebe5fc:	52808025 	mov	w5, #0x401                 	// #1025
/data/jenkins/workspace/GNU-toolchain/arm-10/src/newlib-cygwin/newlib/libc/machine/aarch64/memchr.S:89
    3cebe600:	72a80205 	movk	w5, #0x4010, lsl #16
/data/jenkins/workspace/GNU-toolchain/arm-10/src/newlib-cygwin/newlib/libc/machine/aarch64/memchr.S:90
    3cebe604:	4e010c20 	dup	v0.16b, w1
/data/jenkins/workspace/GNU-toolchain/arm-10/src/newlib-cygwin/newlib/libc/machine/aarch64/memchr.S:92
    3cebe608:	927be803 	and	x3, x0, #0xffffffffffffffe0
/data/jenkins/workspace/GNU-toolchain/arm-10/src/newlib-cygwin/newlib/libc/machine/aarch64/memchr.S:93
    3cebe60c:	4e040ca5 	dup	v5.4s, w5
/data/jenkins/workspace/GNU-toolchain/arm-10/src/newlib-cygwin/newlib/libc/machine/aarch64/memchr.S:94
    3cebe610:	f2401009 	ands	x9, x0, #0x1f
/data/jenkins/workspace/GNU-toolchain/arm-10/src/newlib-cygwin/newlib/libc/machine/aarch64/memchr.S:95
    3cebe614:	9240104a 	and	x10, x2, #0x1f
/data/jenkins/workspace/GNU-toolchain/arm-10/src/newlib-cygwin/newlib/libc/machine/aarch64/memchr.S:96
    3cebe618:	54000200 	b.eq	3cebe658 <memchr+0x60>  // b.none
/data/jenkins/workspace/GNU-toolchain/arm-10/src/newlib-cygwin/newlib/libc/machine/aarch64/memchr.S:104
    3cebe61c:	4cdfa061 	ld1	{v1.16b, v2.16b}, [x3], #32
/data/jenkins/workspace/GNU-toolchain/arm-10/src/newlib-cygwin/newlib/libc/machine/aarch64/memchr.S:105
    3cebe620:	d1008124 	sub	x4, x9, #0x20
/data/jenkins/workspace/GNU-toolchain/arm-10/src/newlib-cygwin/newlib/libc/machine/aarch64/memchr.S:106
    3cebe624:	ab040042 	adds	x2, x2, x4
/data/jenkins/workspace/GNU-toolchain/arm-10/src/newlib-cygwin/newlib/libc/machine/aarch64/memchr.S:107
    3cebe628:	6e208c23 	cmeq	v3.16b, v1.16b, v0.16b
/data/jenkins/workspace/GNU-toolchain/arm-10/src/newlib-cygwin/newlib/libc/machine/aarch64/memchr.S:108
    3cebe62c:	6e208c44 	cmeq	v4.16b, v2.16b, v0.16b
/data/jenkins/workspace/GNU-toolchain/arm-10/src/newlib-cygwin/newlib/libc/machine/aarch64/memchr.S:109
    3cebe630:	4e251c63 	and	v3.16b, v3.16b, v5.16b
/data/jenkins/workspace/GNU-toolchain/arm-10/src/newlib-cygwin/newlib/libc/machine/aarch64/memchr.S:110
    3cebe634:	4e251c84 	and	v4.16b, v4.16b, v5.16b
/data/jenkins/workspace/GNU-toolchain/arm-10/src/newlib-cygwin/newlib/libc/machine/aarch64/memchr.S:111
    3cebe638:	4e24bc66 	addp	v6.16b, v3.16b, v4.16b
/data/jenkins/workspace/GNU-toolchain/arm-10/src/newlib-cygwin/newlib/libc/machine/aarch64/memchr.S:112
    3cebe63c:	4e26bcc6 	addp	v6.16b, v6.16b, v6.16b
/data/jenkins/workspace/GNU-toolchain/arm-10/src/newlib-cygwin/newlib/libc/machine/aarch64/memchr.S:113
    3cebe640:	4e083cc6 	mov	x6, v6.d[0]
/data/jenkins/workspace/GNU-toolchain/arm-10/src/newlib-cygwin/newlib/libc/machine/aarch64/memchr.S:115
    3cebe644:	d37ff924 	lsl	x4, x9, #1
/data/jenkins/workspace/GNU-toolchain/arm-10/src/newlib-cygwin/newlib/libc/machine/aarch64/memchr.S:116
    3cebe648:	9ac424c6 	lsr	x6, x6, x4
/data/jenkins/workspace/GNU-toolchain/arm-10/src/newlib-cygwin/newlib/libc/machine/aarch64/memchr.S:117
    3cebe64c:	9ac420c6 	lsl	x6, x6, x4
/data/jenkins/workspace/GNU-toolchain/arm-10/src/newlib-cygwin/newlib/libc/machine/aarch64/memchr.S:119
    3cebe650:	54000229 	b.ls	3cebe694 <memchr+0x9c>  // b.plast
/data/jenkins/workspace/GNU-toolchain/arm-10/src/newlib-cygwin/newlib/libc/machine/aarch64/memchr.S:121
    3cebe654:	b50002c6 	cbnz	x6, 3cebe6ac <memchr+0xb4>
/data/jenkins/workspace/GNU-toolchain/arm-10/src/newlib-cygwin/newlib/libc/machine/aarch64/memchr.S:124
    3cebe658:	4cdfa061 	ld1	{v1.16b, v2.16b}, [x3], #32
/data/jenkins/workspace/GNU-toolchain/arm-10/src/newlib-cygwin/newlib/libc/machine/aarch64/memchr.S:125
    3cebe65c:	f1008042 	subs	x2, x2, #0x20
/data/jenkins/workspace/GNU-toolchain/arm-10/src/newlib-cygwin/newlib/libc/machine/aarch64/memchr.S:126
    3cebe660:	6e208c23 	cmeq	v3.16b, v1.16b, v0.16b
/data/jenkins/workspace/GNU-toolchain/arm-10/src/newlib-cygwin/newlib/libc/machine/aarch64/memchr.S:127
    3cebe664:	6e208c44 	cmeq	v4.16b, v2.16b, v0.16b
/data/jenkins/workspace/GNU-toolchain/arm-10/src/newlib-cygwin/newlib/libc/machine/aarch64/memchr.S:129
    3cebe668:	540000a9 	b.ls	3cebe67c <memchr+0x84>  // b.plast
/data/jenkins/workspace/GNU-toolchain/arm-10/src/newlib-cygwin/newlib/libc/machine/aarch64/memchr.S:131
    3cebe66c:	4ea41c66 	orr	v6.16b, v3.16b, v4.16b
/data/jenkins/workspace/GNU-toolchain/arm-10/src/newlib-cygwin/newlib/libc/machine/aarch64/memchr.S:132
    3cebe670:	4ee6bcc6 	addp	v6.2d, v6.2d, v6.2d
/data/jenkins/workspace/GNU-toolchain/arm-10/src/newlib-cygwin/newlib/libc/machine/aarch64/memchr.S:133
    3cebe674:	4e083cc6 	mov	x6, v6.d[0]
/data/jenkins/workspace/GNU-toolchain/arm-10/src/newlib-cygwin/newlib/libc/machine/aarch64/memchr.S:135
    3cebe678:	b4ffff06 	cbz	x6, 3cebe658 <memchr+0x60>
/data/jenkins/workspace/GNU-toolchain/arm-10/src/newlib-cygwin/newlib/libc/machine/aarch64/memchr.S:139
    3cebe67c:	4e251c63 	and	v3.16b, v3.16b, v5.16b
/data/jenkins/workspace/GNU-toolchain/arm-10/src/newlib-cygwin/newlib/libc/machine/aarch64/memchr.S:140
    3cebe680:	4e251c84 	and	v4.16b, v4.16b, v5.16b
/data/jenkins/workspace/GNU-toolchain/arm-10/src/newlib-cygwin/newlib/libc/machine/aarch64/memchr.S:141
    3cebe684:	4e24bc66 	addp	v6.16b, v3.16b, v4.16b
/data/jenkins/workspace/GNU-toolchain/arm-10/src/newlib-cygwin/newlib/libc/machine/aarch64/memchr.S:142
    3cebe688:	4e26bcc6 	addp	v6.16b, v6.16b, v6.16b
/data/jenkins/workspace/GNU-toolchain/arm-10/src/newlib-cygwin/newlib/libc/machine/aarch64/memchr.S:143
    3cebe68c:	4e083cc6 	mov	x6, v6.d[0]
/data/jenkins/workspace/GNU-toolchain/arm-10/src/newlib-cygwin/newlib/libc/machine/aarch64/memchr.S:145
    3cebe690:	540000e8 	b.hi	3cebe6ac <memchr+0xb4>  // b.pmore
/data/jenkins/workspace/GNU-toolchain/arm-10/src/newlib-cygwin/newlib/libc/machine/aarch64/memchr.S:149
    3cebe694:	8b090144 	add	x4, x10, x9
/data/jenkins/workspace/GNU-toolchain/arm-10/src/newlib-cygwin/newlib/libc/machine/aarch64/memchr.S:150
    3cebe698:	92401084 	and	x4, x4, #0x1f
/data/jenkins/workspace/GNU-toolchain/arm-10/src/newlib-cygwin/newlib/libc/machine/aarch64/memchr.S:151
    3cebe69c:	d1008084 	sub	x4, x4, #0x20
/data/jenkins/workspace/GNU-toolchain/arm-10/src/newlib-cygwin/newlib/libc/machine/aarch64/memchr.S:152
    3cebe6a0:	cb0407e4 	neg	x4, x4, lsl #1
/data/jenkins/workspace/GNU-toolchain/arm-10/src/newlib-cygwin/newlib/libc/machine/aarch64/memchr.S:153
    3cebe6a4:	9ac420c6 	lsl	x6, x6, x4
/data/jenkins/workspace/GNU-toolchain/arm-10/src/newlib-cygwin/newlib/libc/machine/aarch64/memchr.S:154
    3cebe6a8:	9ac424c6 	lsr	x6, x6, x4
/data/jenkins/workspace/GNU-toolchain/arm-10/src/newlib-cygwin/newlib/libc/machine/aarch64/memchr.S:158
    3cebe6ac:	dac000c6 	rbit	x6, x6
/data/jenkins/workspace/GNU-toolchain/arm-10/src/newlib-cygwin/newlib/libc/machine/aarch64/memchr.S:160
    3cebe6b0:	d1008063 	sub	x3, x3, #0x20
/data/jenkins/workspace/GNU-toolchain/arm-10/src/newlib-cygwin/newlib/libc/machine/aarch64/memchr.S:162
    3cebe6b4:	f10000df 	cmp	x6, #0x0
/data/jenkins/workspace/GNU-toolchain/arm-10/src/newlib-cygwin/newlib/libc/machine/aarch64/memchr.S:164
    3cebe6b8:	dac010c6 	clz	x6, x6
/data/jenkins/workspace/GNU-toolchain/arm-10/src/newlib-cygwin/newlib/libc/machine/aarch64/memchr.S:166
    3cebe6bc:	8b460460 	add	x0, x3, x6, lsr #1
/data/jenkins/workspace/GNU-toolchain/arm-10/src/newlib-cygwin/newlib/libc/machine/aarch64/memchr.S:168
    3cebe6c0:	9a8003e0 	csel	x0, xzr, x0, eq  // eq = none
/data/jenkins/workspace/GNU-toolchain/arm-10/src/newlib-cygwin/newlib/libc/machine/aarch64/memchr.S:169
    3cebe6c4:	d65f03c0 	ret
/data/jenkins/workspace/GNU-toolchain/arm-10/src/newlib-cygwin/newlib/libc/machine/aarch64/memchr.S:172
    3cebe6c8:	d2800000 	mov	x0, #0x0                   	// #0
/data/jenkins/workspace/GNU-toolchain/arm-10/src/newlib-cygwin/newlib/libc/machine/aarch64/memchr.S:173
    3cebe6cc:	d65f03c0 	ret
	...
/data/jenkins/workspace/GNU-toolchain/arm-10/src/newlib-cygwin/newlib/libc/machine/aarch64/strncmp.S:76
    3cebe700:	d503201f 	nop
    3cebe704:	d503201f 	nop
    3cebe708:	d503201f 	nop
    3cebe70c:	d503201f 	nop
    3cebe710:	d503201f 	nop
    3cebe714:	d503201f 	nop
    3cebe718:	d503201f 	nop

000000003cebe71c <strncmp>:
strncmp():
/data/jenkins/workspace/GNU-toolchain/arm-10/src/newlib-cygwin/newlib/libc/machine/aarch64/strncmp.S:78
    3cebe71c:	b4000d82 	cbz	x2, 3cebe8cc <strncmp+0x1b0>
/data/jenkins/workspace/GNU-toolchain/arm-10/src/newlib-cygwin/newlib/libc/machine/aarch64/strncmp.S:79
    3cebe720:	ca010008 	eor	x8, x0, x1
/data/jenkins/workspace/GNU-toolchain/arm-10/src/newlib-cygwin/newlib/libc/machine/aarch64/strncmp.S:80
    3cebe724:	b200c3eb 	mov	x11, #0x101010101010101     	// #72340172838076673
/data/jenkins/workspace/GNU-toolchain/arm-10/src/newlib-cygwin/newlib/libc/machine/aarch64/strncmp.S:81
    3cebe728:	f240091f 	tst	x8, #0x7
/data/jenkins/workspace/GNU-toolchain/arm-10/src/newlib-cygwin/newlib/libc/machine/aarch64/strncmp.S:82
    3cebe72c:	9240080e 	and	x14, x0, #0x7
/data/jenkins/workspace/GNU-toolchain/arm-10/src/newlib-cygwin/newlib/libc/machine/aarch64/strncmp.S:83
    3cebe730:	54000681 	b.ne	3cebe800 <strncmp+0xe4>  // b.any
/data/jenkins/workspace/GNU-toolchain/arm-10/src/newlib-cygwin/newlib/libc/machine/aarch64/strncmp.S:84
    3cebe734:	b500040e 	cbnz	x14, 3cebe7b4 <strncmp+0x98>
/data/jenkins/workspace/GNU-toolchain/arm-10/src/newlib-cygwin/newlib/libc/machine/aarch64/strncmp.S:86
    3cebe738:	d100044d 	sub	x13, x2, #0x1
/data/jenkins/workspace/GNU-toolchain/arm-10/src/newlib-cygwin/newlib/libc/machine/aarch64/strncmp.S:87
    3cebe73c:	d343fdad 	lsr	x13, x13, #3
/data/jenkins/workspace/GNU-toolchain/arm-10/src/newlib-cygwin/newlib/libc/machine/aarch64/strncmp.S:94
    3cebe740:	f8408403 	ldr	x3, [x0], #8
/data/jenkins/workspace/GNU-toolchain/arm-10/src/newlib-cygwin/newlib/libc/machine/aarch64/strncmp.S:95
    3cebe744:	f8408424 	ldr	x4, [x1], #8
/data/jenkins/workspace/GNU-toolchain/arm-10/src/newlib-cygwin/newlib/libc/machine/aarch64/strncmp.S:97
    3cebe748:	f10005ad 	subs	x13, x13, #0x1
/data/jenkins/workspace/GNU-toolchain/arm-10/src/newlib-cygwin/newlib/libc/machine/aarch64/strncmp.S:98
    3cebe74c:	cb0b0068 	sub	x8, x3, x11
/data/jenkins/workspace/GNU-toolchain/arm-10/src/newlib-cygwin/newlib/libc/machine/aarch64/strncmp.S:99
    3cebe750:	b200d869 	orr	x9, x3, #0x7f7f7f7f7f7f7f7f
/data/jenkins/workspace/GNU-toolchain/arm-10/src/newlib-cygwin/newlib/libc/machine/aarch64/strncmp.S:100
    3cebe754:	ca040066 	eor	x6, x3, x4
/data/jenkins/workspace/GNU-toolchain/arm-10/src/newlib-cygwin/newlib/libc/machine/aarch64/strncmp.S:101
    3cebe758:	da9f50cf 	csinv	x15, x6, xzr, pl  // pl = nfrst
/data/jenkins/workspace/GNU-toolchain/arm-10/src/newlib-cygwin/newlib/libc/machine/aarch64/strncmp.S:102
    3cebe75c:	ea290105 	bics	x5, x8, x9
/data/jenkins/workspace/GNU-toolchain/arm-10/src/newlib-cygwin/newlib/libc/machine/aarch64/strncmp.S:103
    3cebe760:	fa4009e0 	ccmp	x15, #0x0, #0x0, eq  // eq = none
/data/jenkins/workspace/GNU-toolchain/arm-10/src/newlib-cygwin/newlib/libc/machine/aarch64/strncmp.S:104
    3cebe764:	54fffee0 	b.eq	3cebe740 <strncmp+0x24>  // b.none
/data/jenkins/workspace/GNU-toolchain/arm-10/src/newlib-cygwin/newlib/libc/machine/aarch64/strncmp.S:108
    3cebe768:	b6f8012d 	tbz	x13, #63, 3cebe78c <strncmp+0x70>
/data/jenkins/workspace/GNU-toolchain/arm-10/src/newlib-cygwin/newlib/libc/machine/aarch64/strncmp.S:111
    3cebe76c:	f2400842 	ands	x2, x2, #0x7
/data/jenkins/workspace/GNU-toolchain/arm-10/src/newlib-cygwin/newlib/libc/machine/aarch64/strncmp.S:112
    3cebe770:	540000e0 	b.eq	3cebe78c <strncmp+0x70>  // b.none
/data/jenkins/workspace/GNU-toolchain/arm-10/src/newlib-cygwin/newlib/libc/machine/aarch64/strncmp.S:114
    3cebe774:	d37df042 	lsl	x2, x2, #3
/data/jenkins/workspace/GNU-toolchain/arm-10/src/newlib-cygwin/newlib/libc/machine/aarch64/strncmp.S:115
    3cebe778:	9280000e 	mov	x14, #0xffffffffffffffff    	// #-1
/data/jenkins/workspace/GNU-toolchain/arm-10/src/newlib-cygwin/newlib/libc/machine/aarch64/strncmp.S:119
    3cebe77c:	9ac221ce 	lsl	x14, x14, x2
/data/jenkins/workspace/GNU-toolchain/arm-10/src/newlib-cygwin/newlib/libc/machine/aarch64/strncmp.S:121
    3cebe780:	8a2e0063 	bic	x3, x3, x14
/data/jenkins/workspace/GNU-toolchain/arm-10/src/newlib-cygwin/newlib/libc/machine/aarch64/strncmp.S:122
    3cebe784:	8a2e0084 	bic	x4, x4, x14
/data/jenkins/workspace/GNU-toolchain/arm-10/src/newlib-cygwin/newlib/libc/machine/aarch64/strncmp.S:125
    3cebe788:	aa0e00a5 	orr	x5, x5, x14
/data/jenkins/workspace/GNU-toolchain/arm-10/src/newlib-cygwin/newlib/libc/machine/aarch64/strncmp.S:128
    3cebe78c:	aa0500c7 	orr	x7, x6, x5
/data/jenkins/workspace/GNU-toolchain/arm-10/src/newlib-cygwin/newlib/libc/machine/aarch64/strncmp.S:131
    3cebe790:	dac00ce7 	rev	x7, x7
/data/jenkins/workspace/GNU-toolchain/arm-10/src/newlib-cygwin/newlib/libc/machine/aarch64/strncmp.S:132
    3cebe794:	dac00c63 	rev	x3, x3
/data/jenkins/workspace/GNU-toolchain/arm-10/src/newlib-cygwin/newlib/libc/machine/aarch64/strncmp.S:137
    3cebe798:	dac010ec 	clz	x12, x7
/data/jenkins/workspace/GNU-toolchain/arm-10/src/newlib-cygwin/newlib/libc/machine/aarch64/strncmp.S:138
    3cebe79c:	dac00c84 	rev	x4, x4
/data/jenkins/workspace/GNU-toolchain/arm-10/src/newlib-cygwin/newlib/libc/machine/aarch64/strncmp.S:139
    3cebe7a0:	9acc2063 	lsl	x3, x3, x12
/data/jenkins/workspace/GNU-toolchain/arm-10/src/newlib-cygwin/newlib/libc/machine/aarch64/strncmp.S:140
    3cebe7a4:	9acc2084 	lsl	x4, x4, x12
/data/jenkins/workspace/GNU-toolchain/arm-10/src/newlib-cygwin/newlib/libc/machine/aarch64/strncmp.S:143
    3cebe7a8:	d378fc63 	lsr	x3, x3, #56
/data/jenkins/workspace/GNU-toolchain/arm-10/src/newlib-cygwin/newlib/libc/machine/aarch64/strncmp.S:144
    3cebe7ac:	cb44e060 	sub	x0, x3, x4, lsr #56
/data/jenkins/workspace/GNU-toolchain/arm-10/src/newlib-cygwin/newlib/libc/machine/aarch64/strncmp.S:145
    3cebe7b0:	d65f03c0 	ret
/data/jenkins/workspace/GNU-toolchain/arm-10/src/newlib-cygwin/newlib/libc/machine/aarch64/strncmp.S:186
    3cebe7b4:	927df000 	and	x0, x0, #0xfffffffffffffff8
/data/jenkins/workspace/GNU-toolchain/arm-10/src/newlib-cygwin/newlib/libc/machine/aarch64/strncmp.S:187
    3cebe7b8:	927df021 	and	x1, x1, #0xfffffffffffffff8
/data/jenkins/workspace/GNU-toolchain/arm-10/src/newlib-cygwin/newlib/libc/machine/aarch64/strncmp.S:188
    3cebe7bc:	f8408403 	ldr	x3, [x0], #8
/data/jenkins/workspace/GNU-toolchain/arm-10/src/newlib-cygwin/newlib/libc/machine/aarch64/strncmp.S:189
    3cebe7c0:	cb0e0fea 	neg	x10, x14, lsl #3
/data/jenkins/workspace/GNU-toolchain/arm-10/src/newlib-cygwin/newlib/libc/machine/aarch64/strncmp.S:190
    3cebe7c4:	f8408424 	ldr	x4, [x1], #8
/data/jenkins/workspace/GNU-toolchain/arm-10/src/newlib-cygwin/newlib/libc/machine/aarch64/strncmp.S:191
    3cebe7c8:	92800009 	mov	x9, #0xffffffffffffffff    	// #-1
/data/jenkins/workspace/GNU-toolchain/arm-10/src/newlib-cygwin/newlib/libc/machine/aarch64/strncmp.S:192
    3cebe7cc:	d100044d 	sub	x13, x2, #0x1
/data/jenkins/workspace/GNU-toolchain/arm-10/src/newlib-cygwin/newlib/libc/machine/aarch64/strncmp.S:198
    3cebe7d0:	9aca2529 	lsr	x9, x9, x10
/data/jenkins/workspace/GNU-toolchain/arm-10/src/newlib-cygwin/newlib/libc/machine/aarch64/strncmp.S:200
    3cebe7d4:	924009aa 	and	x10, x13, #0x7
/data/jenkins/workspace/GNU-toolchain/arm-10/src/newlib-cygwin/newlib/libc/machine/aarch64/strncmp.S:201
    3cebe7d8:	d343fdad 	lsr	x13, x13, #3
/data/jenkins/workspace/GNU-toolchain/arm-10/src/newlib-cygwin/newlib/libc/machine/aarch64/strncmp.S:203
    3cebe7dc:	8b0e0042 	add	x2, x2, x14
/data/jenkins/workspace/GNU-toolchain/arm-10/src/newlib-cygwin/newlib/libc/machine/aarch64/strncmp.S:204
    3cebe7e0:	8b0e014a 	add	x10, x10, x14
/data/jenkins/workspace/GNU-toolchain/arm-10/src/newlib-cygwin/newlib/libc/machine/aarch64/strncmp.S:205
    3cebe7e4:	aa090063 	orr	x3, x3, x9
/data/jenkins/workspace/GNU-toolchain/arm-10/src/newlib-cygwin/newlib/libc/machine/aarch64/strncmp.S:206
    3cebe7e8:	aa090084 	orr	x4, x4, x9
/data/jenkins/workspace/GNU-toolchain/arm-10/src/newlib-cygwin/newlib/libc/machine/aarch64/strncmp.S:207
    3cebe7ec:	8b4a0dad 	add	x13, x13, x10, lsr #3
/data/jenkins/workspace/GNU-toolchain/arm-10/src/newlib-cygwin/newlib/libc/machine/aarch64/strncmp.S:208
    3cebe7f0:	17ffffd6 	b	3cebe748 <strncmp+0x2c>
    3cebe7f4:	d503201f 	nop
    3cebe7f8:	d503201f 	nop
    3cebe7fc:	d503201f 	nop
/data/jenkins/workspace/GNU-toolchain/arm-10/src/newlib-cygwin/newlib/libc/machine/aarch64/strncmp.S:213
    3cebe800:	f100405f 	cmp	x2, #0x10
/data/jenkins/workspace/GNU-toolchain/arm-10/src/newlib-cygwin/newlib/libc/machine/aarch64/strncmp.S:214
    3cebe804:	54000122 	b.cs	3cebe828 <strncmp+0x10c>  // b.hs, b.nlast
/data/jenkins/workspace/GNU-toolchain/arm-10/src/newlib-cygwin/newlib/libc/machine/aarch64/strncmp.S:218
    3cebe808:	38401403 	ldrb	w3, [x0], #1
/data/jenkins/workspace/GNU-toolchain/arm-10/src/newlib-cygwin/newlib/libc/machine/aarch64/strncmp.S:219
    3cebe80c:	38401424 	ldrb	w4, [x1], #1
/data/jenkins/workspace/GNU-toolchain/arm-10/src/newlib-cygwin/newlib/libc/machine/aarch64/strncmp.S:220
    3cebe810:	f1000442 	subs	x2, x2, #0x1
/data/jenkins/workspace/GNU-toolchain/arm-10/src/newlib-cygwin/newlib/libc/machine/aarch64/strncmp.S:221
    3cebe814:	7a418860 	ccmp	w3, #0x1, #0x0, hi  // hi = pmore
/data/jenkins/workspace/GNU-toolchain/arm-10/src/newlib-cygwin/newlib/libc/machine/aarch64/strncmp.S:222
    3cebe818:	7a442060 	ccmp	w3, w4, #0x0, cs  // cs = hs, nlast
/data/jenkins/workspace/GNU-toolchain/arm-10/src/newlib-cygwin/newlib/libc/machine/aarch64/strncmp.S:223
    3cebe81c:	54ffff60 	b.eq	3cebe808 <strncmp+0xec>  // b.none
/data/jenkins/workspace/GNU-toolchain/arm-10/src/newlib-cygwin/newlib/libc/machine/aarch64/strncmp.S:225
    3cebe820:	cb040060 	sub	x0, x3, x4
/data/jenkins/workspace/GNU-toolchain/arm-10/src/newlib-cygwin/newlib/libc/machine/aarch64/strncmp.S:226
    3cebe824:	d65f03c0 	ret
/data/jenkins/workspace/GNU-toolchain/arm-10/src/newlib-cygwin/newlib/libc/machine/aarch64/strncmp.S:230
    3cebe828:	d343fc4d 	lsr	x13, x2, #3
/data/jenkins/workspace/GNU-toolchain/arm-10/src/newlib-cygwin/newlib/libc/machine/aarch64/strncmp.S:231
    3cebe82c:	b400018e 	cbz	x14, 3cebe85c <strncmp+0x140>
/data/jenkins/workspace/GNU-toolchain/arm-10/src/newlib-cygwin/newlib/libc/machine/aarch64/strncmp.S:233
    3cebe830:	cb0e03ee 	neg	x14, x14
/data/jenkins/workspace/GNU-toolchain/arm-10/src/newlib-cygwin/newlib/libc/machine/aarch64/strncmp.S:234
    3cebe834:	924009ce 	and	x14, x14, #0x7
/data/jenkins/workspace/GNU-toolchain/arm-10/src/newlib-cygwin/newlib/libc/machine/aarch64/strncmp.S:235
    3cebe838:	cb0e0042 	sub	x2, x2, x14
/data/jenkins/workspace/GNU-toolchain/arm-10/src/newlib-cygwin/newlib/libc/machine/aarch64/strncmp.S:236
    3cebe83c:	d343fc4d 	lsr	x13, x2, #3
/data/jenkins/workspace/GNU-toolchain/arm-10/src/newlib-cygwin/newlib/libc/machine/aarch64/strncmp.S:239
    3cebe840:	38401403 	ldrb	w3, [x0], #1
/data/jenkins/workspace/GNU-toolchain/arm-10/src/newlib-cygwin/newlib/libc/machine/aarch64/strncmp.S:240
    3cebe844:	38401424 	ldrb	w4, [x1], #1
/data/jenkins/workspace/GNU-toolchain/arm-10/src/newlib-cygwin/newlib/libc/machine/aarch64/strncmp.S:241
    3cebe848:	7100047f 	cmp	w3, #0x1
/data/jenkins/workspace/GNU-toolchain/arm-10/src/newlib-cygwin/newlib/libc/machine/aarch64/strncmp.S:242
    3cebe84c:	7a442060 	ccmp	w3, w4, #0x0, cs  // cs = hs, nlast
/data/jenkins/workspace/GNU-toolchain/arm-10/src/newlib-cygwin/newlib/libc/machine/aarch64/strncmp.S:243
    3cebe850:	54fffe81 	b.ne	3cebe820 <strncmp+0x104>  // b.any
/data/jenkins/workspace/GNU-toolchain/arm-10/src/newlib-cygwin/newlib/libc/machine/aarch64/strncmp.S:244
    3cebe854:	f10005ce 	subs	x14, x14, #0x1
/data/jenkins/workspace/GNU-toolchain/arm-10/src/newlib-cygwin/newlib/libc/machine/aarch64/strncmp.S:245
    3cebe858:	54ffff48 	b.hi	3cebe840 <strncmp+0x124>  // b.pmore
/data/jenkins/workspace/GNU-toolchain/arm-10/src/newlib-cygwin/newlib/libc/machine/aarch64/strncmp.S:251
    3cebe85c:	d280010e 	mov	x14, #0x8                   	// #8
/data/jenkins/workspace/GNU-toolchain/arm-10/src/newlib-cygwin/newlib/libc/machine/aarch64/strncmp.S:252
    3cebe860:	f10005ad 	subs	x13, x13, #0x1
/data/jenkins/workspace/GNU-toolchain/arm-10/src/newlib-cygwin/newlib/libc/machine/aarch64/strncmp.S:253
    3cebe864:	540001c3 	b.cc	3cebe89c <strncmp+0x180>  // b.lo, b.ul, b.last
/data/jenkins/workspace/GNU-toolchain/arm-10/src/newlib-cygwin/newlib/libc/machine/aarch64/strncmp.S:255
    3cebe868:	927d2029 	and	x9, x1, #0xff8
/data/jenkins/workspace/GNU-toolchain/arm-10/src/newlib-cygwin/newlib/libc/machine/aarch64/strncmp.S:256
    3cebe86c:	d27d2129 	eor	x9, x9, #0xff8
/data/jenkins/workspace/GNU-toolchain/arm-10/src/newlib-cygwin/newlib/libc/machine/aarch64/strncmp.S:257
    3cebe870:	b4fffe89 	cbz	x9, 3cebe840 <strncmp+0x124>
/data/jenkins/workspace/GNU-toolchain/arm-10/src/newlib-cygwin/newlib/libc/machine/aarch64/strncmp.S:259
    3cebe874:	f8408403 	ldr	x3, [x0], #8
/data/jenkins/workspace/GNU-toolchain/arm-10/src/newlib-cygwin/newlib/libc/machine/aarch64/strncmp.S:260
    3cebe878:	f8408424 	ldr	x4, [x1], #8
/data/jenkins/workspace/GNU-toolchain/arm-10/src/newlib-cygwin/newlib/libc/machine/aarch64/strncmp.S:261
    3cebe87c:	cb0b0068 	sub	x8, x3, x11
/data/jenkins/workspace/GNU-toolchain/arm-10/src/newlib-cygwin/newlib/libc/machine/aarch64/strncmp.S:262
    3cebe880:	b200d869 	orr	x9, x3, #0x7f7f7f7f7f7f7f7f
/data/jenkins/workspace/GNU-toolchain/arm-10/src/newlib-cygwin/newlib/libc/machine/aarch64/strncmp.S:263
    3cebe884:	ca040066 	eor	x6, x3, x4
/data/jenkins/workspace/GNU-toolchain/arm-10/src/newlib-cygwin/newlib/libc/machine/aarch64/strncmp.S:264
    3cebe888:	ea290105 	bics	x5, x8, x9
/data/jenkins/workspace/GNU-toolchain/arm-10/src/newlib-cygwin/newlib/libc/machine/aarch64/strncmp.S:265
    3cebe88c:	fa4008c0 	ccmp	x6, #0x0, #0x0, eq  // eq = none
/data/jenkins/workspace/GNU-toolchain/arm-10/src/newlib-cygwin/newlib/libc/machine/aarch64/strncmp.S:266
    3cebe890:	54fff7e1 	b.ne	3cebe78c <strncmp+0x70>  // b.any
/data/jenkins/workspace/GNU-toolchain/arm-10/src/newlib-cygwin/newlib/libc/machine/aarch64/strncmp.S:267
    3cebe894:	f10005ad 	subs	x13, x13, #0x1
/data/jenkins/workspace/GNU-toolchain/arm-10/src/newlib-cygwin/newlib/libc/machine/aarch64/strncmp.S:268
    3cebe898:	54fffe85 	b.pl	3cebe868 <strncmp+0x14c>  // b.nfrst
/data/jenkins/workspace/GNU-toolchain/arm-10/src/newlib-cygwin/newlib/libc/machine/aarch64/strncmp.S:272
    3cebe89c:	92400842 	and	x2, x2, #0x7
/data/jenkins/workspace/GNU-toolchain/arm-10/src/newlib-cygwin/newlib/libc/machine/aarch64/strncmp.S:273
    3cebe8a0:	b4fff762 	cbz	x2, 3cebe78c <strncmp+0x70>
/data/jenkins/workspace/GNU-toolchain/arm-10/src/newlib-cygwin/newlib/libc/machine/aarch64/strncmp.S:275
    3cebe8a4:	d1002000 	sub	x0, x0, #0x8
/data/jenkins/workspace/GNU-toolchain/arm-10/src/newlib-cygwin/newlib/libc/machine/aarch64/strncmp.S:276
    3cebe8a8:	d1002021 	sub	x1, x1, #0x8
/data/jenkins/workspace/GNU-toolchain/arm-10/src/newlib-cygwin/newlib/libc/machine/aarch64/strncmp.S:277
    3cebe8ac:	f8626803 	ldr	x3, [x0, x2]
/data/jenkins/workspace/GNU-toolchain/arm-10/src/newlib-cygwin/newlib/libc/machine/aarch64/strncmp.S:278
    3cebe8b0:	f8626824 	ldr	x4, [x1, x2]
/data/jenkins/workspace/GNU-toolchain/arm-10/src/newlib-cygwin/newlib/libc/machine/aarch64/strncmp.S:279
    3cebe8b4:	cb0b0068 	sub	x8, x3, x11
/data/jenkins/workspace/GNU-toolchain/arm-10/src/newlib-cygwin/newlib/libc/machine/aarch64/strncmp.S:280
    3cebe8b8:	b200d869 	orr	x9, x3, #0x7f7f7f7f7f7f7f7f
/data/jenkins/workspace/GNU-toolchain/arm-10/src/newlib-cygwin/newlib/libc/machine/aarch64/strncmp.S:281
    3cebe8bc:	ca040066 	eor	x6, x3, x4
/data/jenkins/workspace/GNU-toolchain/arm-10/src/newlib-cygwin/newlib/libc/machine/aarch64/strncmp.S:282
    3cebe8c0:	ea290105 	bics	x5, x8, x9
/data/jenkins/workspace/GNU-toolchain/arm-10/src/newlib-cygwin/newlib/libc/machine/aarch64/strncmp.S:283
    3cebe8c4:	fa4008c0 	ccmp	x6, #0x0, #0x0, eq  // eq = none
/data/jenkins/workspace/GNU-toolchain/arm-10/src/newlib-cygwin/newlib/libc/machine/aarch64/strncmp.S:284
    3cebe8c8:	54fff621 	b.ne	3cebe78c <strncmp+0x70>  // b.any
/data/jenkins/workspace/GNU-toolchain/arm-10/src/newlib-cygwin/newlib/libc/machine/aarch64/strncmp.S:287
    3cebe8cc:	d2800000 	mov	x0, #0x0                   	// #0
/data/jenkins/workspace/GNU-toolchain/arm-10/src/newlib-cygwin/newlib/libc/machine/aarch64/strncmp.S:288
    3cebe8d0:	d65f03c0 	ret
	...

000000003cebe900 <memmove>:
memmove():
/data/jenkins/workspace/GNU-toolchain/arm-10/src/newlib-cygwin/newlib/libc/machine/aarch64/memmove.S:97
    3cebe900:	cb010005 	sub	x5, x0, x1
/data/jenkins/workspace/GNU-toolchain/arm-10/src/newlib-cygwin/newlib/libc/machine/aarch64/memmove.S:98
    3cebe904:	f101805f 	cmp	x2, #0x60
/data/jenkins/workspace/GNU-toolchain/arm-10/src/newlib-cygwin/newlib/libc/machine/aarch64/memmove.S:99
    3cebe908:	fa4280a2 	ccmp	x5, x2, #0x2, hi  // hi = pmore
/data/jenkins/workspace/GNU-toolchain/arm-10/src/newlib-cygwin/newlib/libc/machine/aarch64/memmove.S:100
    3cebe90c:	54003322 	b.cs	3cebef70 <__wrap_memcpy>  // b.hs, b.nlast
/data/jenkins/workspace/GNU-toolchain/arm-10/src/newlib-cygwin/newlib/libc/machine/aarch64/memmove.S:102
    3cebe910:	b40004c5 	cbz	x5, 3cebe9a8 <memmove+0xa8>
/data/jenkins/workspace/GNU-toolchain/arm-10/src/newlib-cygwin/newlib/libc/machine/aarch64/memmove.S:103
    3cebe914:	8b020004 	add	x4, x0, x2
/data/jenkins/workspace/GNU-toolchain/arm-10/src/newlib-cygwin/newlib/libc/machine/aarch64/memmove.S:104
    3cebe918:	8b020023 	add	x3, x1, x2
/data/jenkins/workspace/GNU-toolchain/arm-10/src/newlib-cygwin/newlib/libc/machine/aarch64/memmove.S:111
    3cebe91c:	92400c85 	and	x5, x4, #0xf
/data/jenkins/workspace/GNU-toolchain/arm-10/src/newlib-cygwin/newlib/libc/machine/aarch64/memmove.S:112
    3cebe920:	a97f346c 	ldp	x12, x13, [x3, #-16]
/data/jenkins/workspace/GNU-toolchain/arm-10/src/newlib-cygwin/newlib/libc/machine/aarch64/memmove.S:113
    3cebe924:	cb050063 	sub	x3, x3, x5
/data/jenkins/workspace/GNU-toolchain/arm-10/src/newlib-cygwin/newlib/libc/machine/aarch64/memmove.S:114
    3cebe928:	cb050042 	sub	x2, x2, x5
/data/jenkins/workspace/GNU-toolchain/arm-10/src/newlib-cygwin/newlib/libc/machine/aarch64/memmove.S:115
    3cebe92c:	a97f1c66 	ldp	x6, x7, [x3, #-16]
/data/jenkins/workspace/GNU-toolchain/arm-10/src/newlib-cygwin/newlib/libc/machine/aarch64/memmove.S:116
    3cebe930:	a93f348c 	stp	x12, x13, [x4, #-16]
/data/jenkins/workspace/GNU-toolchain/arm-10/src/newlib-cygwin/newlib/libc/machine/aarch64/memmove.S:117
    3cebe934:	a97e2468 	ldp	x8, x9, [x3, #-32]
/data/jenkins/workspace/GNU-toolchain/arm-10/src/newlib-cygwin/newlib/libc/machine/aarch64/memmove.S:118
    3cebe938:	a97d2c6a 	ldp	x10, x11, [x3, #-48]
/data/jenkins/workspace/GNU-toolchain/arm-10/src/newlib-cygwin/newlib/libc/machine/aarch64/memmove.S:119
    3cebe93c:	a9fc346c 	ldp	x12, x13, [x3, #-64]!
/data/jenkins/workspace/GNU-toolchain/arm-10/src/newlib-cygwin/newlib/libc/machine/aarch64/memmove.S:120
    3cebe940:	cb050084 	sub	x4, x4, x5
/data/jenkins/workspace/GNU-toolchain/arm-10/src/newlib-cygwin/newlib/libc/machine/aarch64/memmove.S:121
    3cebe944:	f1020042 	subs	x2, x2, #0x80
/data/jenkins/workspace/GNU-toolchain/arm-10/src/newlib-cygwin/newlib/libc/machine/aarch64/memmove.S:122
    3cebe948:	54000189 	b.ls	3cebe978 <memmove+0x78>  // b.plast
/data/jenkins/workspace/GNU-toolchain/arm-10/src/newlib-cygwin/newlib/libc/machine/aarch64/memmove.S:123
    3cebe94c:	d503201f 	nop
/data/jenkins/workspace/GNU-toolchain/arm-10/src/newlib-cygwin/newlib/libc/machine/aarch64/memmove.S:125
    3cebe950:	a93f1c86 	stp	x6, x7, [x4, #-16]
/data/jenkins/workspace/GNU-toolchain/arm-10/src/newlib-cygwin/newlib/libc/machine/aarch64/memmove.S:126
    3cebe954:	a97f1c66 	ldp	x6, x7, [x3, #-16]
/data/jenkins/workspace/GNU-toolchain/arm-10/src/newlib-cygwin/newlib/libc/machine/aarch64/memmove.S:127
    3cebe958:	a93e2488 	stp	x8, x9, [x4, #-32]
/data/jenkins/workspace/GNU-toolchain/arm-10/src/newlib-cygwin/newlib/libc/machine/aarch64/memmove.S:128
    3cebe95c:	a97e2468 	ldp	x8, x9, [x3, #-32]
/data/jenkins/workspace/GNU-toolchain/arm-10/src/newlib-cygwin/newlib/libc/machine/aarch64/memmove.S:129
    3cebe960:	a93d2c8a 	stp	x10, x11, [x4, #-48]
/data/jenkins/workspace/GNU-toolchain/arm-10/src/newlib-cygwin/newlib/libc/machine/aarch64/memmove.S:130
    3cebe964:	a97d2c6a 	ldp	x10, x11, [x3, #-48]
/data/jenkins/workspace/GNU-toolchain/arm-10/src/newlib-cygwin/newlib/libc/machine/aarch64/memmove.S:131
    3cebe968:	a9bc348c 	stp	x12, x13, [x4, #-64]!
/data/jenkins/workspace/GNU-toolchain/arm-10/src/newlib-cygwin/newlib/libc/machine/aarch64/memmove.S:132
    3cebe96c:	a9fc346c 	ldp	x12, x13, [x3, #-64]!
/data/jenkins/workspace/GNU-toolchain/arm-10/src/newlib-cygwin/newlib/libc/machine/aarch64/memmove.S:133
    3cebe970:	f1010042 	subs	x2, x2, #0x40
/data/jenkins/workspace/GNU-toolchain/arm-10/src/newlib-cygwin/newlib/libc/machine/aarch64/memmove.S:134
    3cebe974:	54fffee8 	b.hi	3cebe950 <memmove+0x50>  // b.pmore
/data/jenkins/workspace/GNU-toolchain/arm-10/src/newlib-cygwin/newlib/libc/machine/aarch64/memmove.S:140
    3cebe978:	a9431422 	ldp	x2, x5, [x1, #48]
/data/jenkins/workspace/GNU-toolchain/arm-10/src/newlib-cygwin/newlib/libc/machine/aarch64/memmove.S:141
    3cebe97c:	a93f1c86 	stp	x6, x7, [x4, #-16]
/data/jenkins/workspace/GNU-toolchain/arm-10/src/newlib-cygwin/newlib/libc/machine/aarch64/memmove.S:142
    3cebe980:	a9421c26 	ldp	x6, x7, [x1, #32]
/data/jenkins/workspace/GNU-toolchain/arm-10/src/newlib-cygwin/newlib/libc/machine/aarch64/memmove.S:143
    3cebe984:	a93e2488 	stp	x8, x9, [x4, #-32]
/data/jenkins/workspace/GNU-toolchain/arm-10/src/newlib-cygwin/newlib/libc/machine/aarch64/memmove.S:144
    3cebe988:	a9412428 	ldp	x8, x9, [x1, #16]
/data/jenkins/workspace/GNU-toolchain/arm-10/src/newlib-cygwin/newlib/libc/machine/aarch64/memmove.S:145
    3cebe98c:	a93d2c8a 	stp	x10, x11, [x4, #-48]
/data/jenkins/workspace/GNU-toolchain/arm-10/src/newlib-cygwin/newlib/libc/machine/aarch64/memmove.S:146
    3cebe990:	a9402c2a 	ldp	x10, x11, [x1]
/data/jenkins/workspace/GNU-toolchain/arm-10/src/newlib-cygwin/newlib/libc/machine/aarch64/memmove.S:147
    3cebe994:	a93c348c 	stp	x12, x13, [x4, #-64]
/data/jenkins/workspace/GNU-toolchain/arm-10/src/newlib-cygwin/newlib/libc/machine/aarch64/memmove.S:148
    3cebe998:	a9031402 	stp	x2, x5, [x0, #48]
/data/jenkins/workspace/GNU-toolchain/arm-10/src/newlib-cygwin/newlib/libc/machine/aarch64/memmove.S:149
    3cebe99c:	a9021c06 	stp	x6, x7, [x0, #32]
/data/jenkins/workspace/GNU-toolchain/arm-10/src/newlib-cygwin/newlib/libc/machine/aarch64/memmove.S:150
    3cebe9a0:	a9012408 	stp	x8, x9, [x0, #16]
/data/jenkins/workspace/GNU-toolchain/arm-10/src/newlib-cygwin/newlib/libc/machine/aarch64/memmove.S:151
    3cebe9a4:	a9002c0a 	stp	x10, x11, [x0]
/data/jenkins/workspace/GNU-toolchain/arm-10/src/newlib-cygwin/newlib/libc/machine/aarch64/memmove.S:152
    3cebe9a8:	d65f03c0 	ret

000000003cebe9ac <PrintC>:
PrintC():
/os/oscope/rtos/uniproton/demos/rk3566_rz3w/apps/ivshmem/main.c:28
U8 g_memRegion00[OS_MEM_FSC_PT_SIZE];
struct IvshmemDeviceData dev;
int irqCounter;

void TestTask1()
{
    3cebe9ac:	d10043ff 	sub	sp, sp, #0x10
    3cebe9b0:	b9000fe0 	str	w0, [sp, #12]
/os/oscope/rtos/uniproton/demos/rk3566_rz3w/apps/ivshmem/main.c:29
#ifdef POSIX_TESTCASE
    3cebe9b4:	b9400fe0 	ldr	w0, [sp, #12]
    3cebe9b8:	d2bfccc1 	mov	x1, #0xfe660000            	// #4268097536
    3cebe9bc:	aa0003e2 	mov	x2, x0
    3cebe9c0:	f9000022 	str	x2, [x1]
/os/oscope/rtos/uniproton/demos/rk3566_rz3w/apps/ivshmem/main.c:33
    Init(0, 0, 0, 0);
#endif

    while (1) {
    3cebe9c4:	d503201f 	nop
    3cebe9c8:	910043ff 	add	sp, sp, #0x10
    3cebe9cc:	d65f03c0 	ret

000000003cebe9d0 <TestTask1>:
TestTask1():
/os/oscope/rtos/uniproton/demos/rk3566_rz3w/apps/ivshmem/main.c:36
        PRT_Printf("TestTask1 run!!! \n");
        PRT_TaskDelay(2000);
    }
    3cebe9d0:	f81f0ffe 	str	x30, [sp, #-16]!
/os/oscope/rtos/uniproton/demos/rk3566_rz3w/apps/ivshmem/main.c:42 (discriminator 1)
}

void TestTask2()
{
    int ret;
    PRT_Printf("TestTask2 enter.\n");
    3cebe9d4:	90000000 	adrp	x0, 3cebe000 <os_asm_dcache_level>
    3cebe9d8:	9127c000 	add	x0, x0, #0x9f0
    3cebe9dc:	f9400000 	ldr	x0, [x0]
    3cebe9e0:	94000724 	bl	3cec0670 <PRT_Printf>
/os/oscope/rtos/uniproton/demos/rk3566_rz3w/apps/ivshmem/main.c:43 (discriminator 1)
    int bdf = PciDeviceFind(VENDORID, DEVICEID, 0);
    3cebe9e4:	5280fa00 	mov	w0, #0x7d0                 	// #2000
    3cebe9e8:	9400610c 	bl	3ced6e18 <PRT_TaskDelay>
/os/oscope/rtos/uniproton/demos/rk3566_rz3w/apps/ivshmem/main.c:42 (discriminator 1)
    PRT_Printf("TestTask2 enter.\n");
    3cebe9ec:	17fffffa 	b	3cebe9d4 <TestTask1+0x4>
    3cebe9f0:	3ced9c80 	.word	0x3ced9c80
    3cebe9f4:	00000000 	.word	0x00000000

000000003cebe9f8 <TestTask2>:
TestTask2():
/os/oscope/rtos/uniproton/demos/rk3566_rz3w/apps/ivshmem/main.c:48
    if (bdf == -1) {
        PRT_Printf("IVSHMEM: No PCI devices found .. nothing to do.\n");
    } else {
        PRT_Printf("IVSHMEM: Found device at %02x:%02x.%x\n", bdf >> 8, (bdf >> 3) & 0x1f, bdf & 0x3);
    }
    3cebe9f8:	f81e0ffe 	str	x30, [sp, #-32]!
/os/oscope/rtos/uniproton/demos/rk3566_rz3w/apps/ivshmem/main.c:50

    unsigned int class_rev = PciCfgRead(bdf, 0x8, 4);
    3cebe9fc:	90000000 	adrp	x0, 3cebe000 <os_asm_dcache_level>
    3cebea00:	91308000 	add	x0, x0, #0xc20
    3cebea04:	f9400000 	ldr	x0, [x0]
    3cebea08:	9400071a 	bl	3cec0670 <PRT_Printf>
/os/oscope/rtos/uniproton/demos/rk3566_rz3w/apps/ivshmem/main.c:51
    if (class_rev != (PCI_DEV_CLASS_OTHER << 24 |
    3cebea0c:	52800002 	mov	w2, #0x0                   	// #0
    3cebea10:	528820c1 	mov	w1, #0x4106                	// #16646
    3cebea14:	52822140 	mov	w0, #0x110a                	// #4362
    3cebea18:	940002be 	bl	3cebf510 <PciDeviceFind>
    3cebea1c:	b9001fe0 	str	w0, [sp, #28]
/os/oscope/rtos/uniproton/demos/rk3566_rz3w/apps/ivshmem/main.c:52
        JAILHOUSE_SHMEM_PROTO_UNDEFINED << 8)) {
    3cebea20:	b9401fe0 	ldr	w0, [sp, #28]
    3cebea24:	3100041f 	cmn	w0, #0x1
    3cebea28:	540000c1 	b.ne	3cebea40 <TestTask2+0x48>  // b.any
/os/oscope/rtos/uniproton/demos/rk3566_rz3w/apps/ivshmem/main.c:53
        PRT_Printf("IVSHMEM: class/revision %08x, not supported.\n", class_rev);
    3cebea2c:	90000000 	adrp	x0, 3cebe000 <os_asm_dcache_level>
    3cebea30:	9130a000 	add	x0, x0, #0xc28
    3cebea34:	f9400000 	ldr	x0, [x0]
    3cebea38:	9400070e 	bl	3cec0670 <PRT_Printf>
    3cebea3c:	1400000d 	b	3cebea70 <TestTask2+0x78>
/os/oscope/rtos/uniproton/demos/rk3566_rz3w/apps/ivshmem/main.c:55
    } else {
        PRT_Printf("IVSHMEM: class/revision %08x, supported.\n", class_rev);
    3cebea40:	b9401fe0 	ldr	w0, [sp, #28]
    3cebea44:	13087c01 	asr	w1, w0, #8
    3cebea48:	b9401fe0 	ldr	w0, [sp, #28]
    3cebea4c:	13037c00 	asr	w0, w0, #3
    3cebea50:	12001002 	and	w2, w0, #0x1f
    3cebea54:	b9401fe0 	ldr	w0, [sp, #28]
    3cebea58:	12000400 	and	w0, w0, #0x3
    3cebea5c:	2a0003e3 	mov	w3, w0
    3cebea60:	90000000 	adrp	x0, 3cebe000 <os_asm_dcache_level>
    3cebea64:	9130c000 	add	x0, x0, #0xc30
    3cebea68:	f9400000 	ldr	x0, [x0]
    3cebea6c:	94000701 	bl	3cec0670 <PRT_Printf>
/os/oscope/rtos/uniproton/demos/rk3566_rz3w/apps/ivshmem/main.c:58
    }

    int vndr_cap = PciCapFind(bdf, PCI_CAP_VENDOR);
    3cebea70:	52800082 	mov	w2, #0x4                   	// #4
    3cebea74:	52800101 	mov	w1, #0x8                   	// #8
    3cebea78:	b9401fe0 	ldr	w0, [sp, #28]
    3cebea7c:	94000242 	bl	3cebf384 <PciCfgRead>
    3cebea80:	b9001be0 	str	w0, [sp, #24]
/os/oscope/rtos/uniproton/demos/rk3566_rz3w/apps/ivshmem/main.c:59
    if (vndr_cap < 0) {
    3cebea84:	b9401be1 	ldr	w1, [sp, #24]
    3cebea88:	52bfe000 	mov	w0, #0xff000000            	// #-16777216
    3cebea8c:	6b00003f 	cmp	w1, w0
    3cebea90:	540000e0 	b.eq	3cebeaac <TestTask2+0xb4>  // b.none
/os/oscope/rtos/uniproton/demos/rk3566_rz3w/apps/ivshmem/main.c:61
        PRT_Printf("IVSHMEM ERROR: missing vendor capability, vndr_cap: %d\n", vndr_cap);
    } else {
    3cebea94:	b9401be1 	ldr	w1, [sp, #24]
    3cebea98:	90000000 	adrp	x0, 3cebe000 <os_asm_dcache_level>
    3cebea9c:	9130e000 	add	x0, x0, #0xc38
    3cebeaa0:	f9400000 	ldr	x0, [x0]
    3cebeaa4:	940006f3 	bl	3cec0670 <PRT_Printf>
    3cebeaa8:	14000006 	b	3cebeac0 <TestTask2+0xc8>
/os/oscope/rtos/uniproton/demos/rk3566_rz3w/apps/ivshmem/main.c:63
        PRT_Printf("IVSHMEM: has vendor capability, vndr_cap: %d\n", vndr_cap);
    }
    3cebeaac:	b9401be1 	ldr	w1, [sp, #24]
    3cebeab0:	90000000 	adrp	x0, 3cebe000 <os_asm_dcache_level>
    3cebeab4:	91310000 	add	x0, x0, #0xc40
    3cebeab8:	f9400000 	ldr	x0, [x0]
    3cebeabc:	940006ed 	bl	3cec0670 <PRT_Printf>
/os/oscope/rtos/uniproton/demos/rk3566_rz3w/apps/ivshmem/main.c:66

    dev.bdf = bdf;
    ret = DeviceInit(&dev);
    3cebeac0:	b9401fe0 	ldr	w0, [sp, #28]
    3cebeac4:	12003c00 	and	w0, w0, #0xffff
    3cebeac8:	52800121 	mov	w1, #0x9                   	// #9
    3cebeacc:	940002c4 	bl	3cebf5dc <PciCapFind>
    3cebead0:	b90017e0 	str	w0, [sp, #20]
/os/oscope/rtos/uniproton/demos/rk3566_rz3w/apps/ivshmem/main.c:67
    if (ret != OS_OK) {
    3cebead4:	b94017e0 	ldr	w0, [sp, #20]
    3cebead8:	7100001f 	cmp	w0, #0x0
    3cebeadc:	540000ea 	b.ge	3cebeaf8 <TestTask2+0x100>  // b.tcont
/os/oscope/rtos/uniproton/demos/rk3566_rz3w/apps/ivshmem/main.c:68
        PRT_Printf("IVSHMEM: init device fail.\n");
    3cebeae0:	b94017e1 	ldr	w1, [sp, #20]
    3cebeae4:	90000000 	adrp	x0, 3cebe000 <os_asm_dcache_level>
    3cebeae8:	91312000 	add	x0, x0, #0xc48
    3cebeaec:	f9400000 	ldr	x0, [x0]
    3cebeaf0:	940006e0 	bl	3cec0670 <PRT_Printf>
    3cebeaf4:	14000006 	b	3cebeb0c <TestTask2+0x114>
/os/oscope/rtos/uniproton/demos/rk3566_rz3w/apps/ivshmem/main.c:70
        return;
    }
    3cebeaf8:	b94017e1 	ldr	w1, [sp, #20]
    3cebeafc:	90000000 	adrp	x0, 3cebe000 <os_asm_dcache_level>
    3cebeb00:	91314000 	add	x0, x0, #0xc50
    3cebeb04:	f9400000 	ldr	x0, [x0]
    3cebeb08:	940006da 	bl	3cec0670 <PRT_Printf>
/os/oscope/rtos/uniproton/demos/rk3566_rz3w/apps/ivshmem/main.c:73
    MmioWrite32(&dev.registers->intControl, 1);
    MmioWrite32(&dev.registers->state, dev.id + 1);
    dev.rwSection[dev.id] = 0;
    3cebeb0c:	b9401fe0 	ldr	w0, [sp, #28]
    3cebeb10:	12003c01 	and	w1, w0, #0xffff
    3cebeb14:	90000000 	adrp	x0, 3cebe000 <os_asm_dcache_level>
    3cebeb18:	91316000 	add	x0, x0, #0xc58
    3cebeb1c:	f9400000 	ldr	x0, [x0]
    3cebeb20:	79000001 	strh	w1, [x0]
/os/oscope/rtos/uniproton/demos/rk3566_rz3w/apps/ivshmem/main.c:74
    dev.outSection[0] = 0;
    3cebeb24:	90000000 	adrp	x0, 3cebe000 <os_asm_dcache_level>
    3cebeb28:	91316000 	add	x0, x0, #0xc58
    3cebeb2c:	f9400000 	ldr	x0, [x0]
    3cebeb30:	94000352 	bl	3cebf878 <DeviceInit>
    3cebeb34:	b90013e0 	str	w0, [sp, #16]
/os/oscope/rtos/uniproton/demos/rk3566_rz3w/apps/ivshmem/main.c:75

    3cebeb38:	b94013e0 	ldr	w0, [sp, #16]
    3cebeb3c:	7100001f 	cmp	w0, #0x0
    3cebeb40:	540000c0 	b.eq	3cebeb58 <TestTask2+0x160>  // b.none
/os/oscope/rtos/uniproton/demos/rk3566_rz3w/apps/ivshmem/main.c:76
    while (1) {
    3cebeb44:	90000000 	adrp	x0, 3cebe000 <os_asm_dcache_level>
    3cebeb48:	91318000 	add	x0, x0, #0xc60
    3cebeb4c:	f9400000 	ldr	x0, [x0]
    3cebeb50:	940006c8 	bl	3cec0670 <PRT_Printf>
/os/oscope/rtos/uniproton/demos/rk3566_rz3w/apps/ivshmem/main.c:77
        PRT_Printf("TestTask2 run! \n");
    3cebeb54:	14000031 	b	3cebec18 <TestTask2+0x220>
/os/oscope/rtos/uniproton/demos/rk3566_rz3w/apps/ivshmem/main.c:79
        PRT_TaskDelay(1000);
        IrqSend(&dev);
    3cebeb58:	90000000 	adrp	x0, 3cebe000 <os_asm_dcache_level>
    3cebeb5c:	91316000 	add	x0, x0, #0xc58
    3cebeb60:	f9400000 	ldr	x0, [x0]
    3cebeb64:	f9400400 	ldr	x0, [x0, #8]
    3cebeb68:	91002000 	add	x0, x0, #0x8
    3cebeb6c:	52800021 	mov	w1, #0x1                   	// #1
    3cebeb70:	94000141 	bl	3cebf074 <MmioWrite32>
/os/oscope/rtos/uniproton/demos/rk3566_rz3w/apps/ivshmem/main.c:80
    }
    3cebeb74:	90000000 	adrp	x0, 3cebe000 <os_asm_dcache_level>
    3cebeb78:	91316000 	add	x0, x0, #0xc58
    3cebeb7c:	f9400000 	ldr	x0, [x0]
    3cebeb80:	f9400400 	ldr	x0, [x0, #8]
    3cebeb84:	91004002 	add	x2, x0, #0x10
    3cebeb88:	90000000 	adrp	x0, 3cebe000 <os_asm_dcache_level>
    3cebeb8c:	91316000 	add	x0, x0, #0xc58
    3cebeb90:	f9400000 	ldr	x0, [x0]
    3cebeb94:	b9405000 	ldr	w0, [x0, #80]
    3cebeb98:	11000400 	add	w0, w0, #0x1
    3cebeb9c:	2a0003e1 	mov	w1, w0
    3cebeba0:	aa0203e0 	mov	x0, x2
    3cebeba4:	94000134 	bl	3cebf074 <MmioWrite32>
/os/oscope/rtos/uniproton/demos/rk3566_rz3w/apps/ivshmem/main.c:81
}
    3cebeba8:	90000000 	adrp	x0, 3cebe000 <os_asm_dcache_level>
    3cebebac:	91316000 	add	x0, x0, #0xc58
    3cebebb0:	f9400000 	ldr	x0, [x0]
    3cebebb4:	f9401001 	ldr	x1, [x0, #32]
    3cebebb8:	90000000 	adrp	x0, 3cebe000 <os_asm_dcache_level>
    3cebebbc:	91316000 	add	x0, x0, #0xc58
    3cebebc0:	f9400000 	ldr	x0, [x0]
    3cebebc4:	b9405000 	ldr	w0, [x0, #80]
    3cebebc8:	2a0003e0 	mov	w0, w0
    3cebebcc:	d37ef400 	lsl	x0, x0, #2
    3cebebd0:	8b000020 	add	x0, x1, x0
    3cebebd4:	b900001f 	str	wzr, [x0]
/os/oscope/rtos/uniproton/demos/rk3566_rz3w/apps/ivshmem/main.c:82

    3cebebd8:	90000000 	adrp	x0, 3cebe000 <os_asm_dcache_level>
    3cebebdc:	91316000 	add	x0, x0, #0xc58
    3cebebe0:	f9400000 	ldr	x0, [x0]
    3cebebe4:	f9401c00 	ldr	x0, [x0, #56]
    3cebebe8:	b900001f 	str	wzr, [x0]
/os/oscope/rtos/uniproton/demos/rk3566_rz3w/apps/ivshmem/main.c:85 (discriminator 1)
U32 OsTestInit(void)
{
    U32 ret;
    3cebebec:	90000000 	adrp	x0, 3cebe000 <os_asm_dcache_level>
    3cebebf0:	9131a000 	add	x0, x0, #0xc68
    3cebebf4:	f9400000 	ldr	x0, [x0]
    3cebebf8:	9400069e 	bl	3cec0670 <PRT_Printf>
/os/oscope/rtos/uniproton/demos/rk3566_rz3w/apps/ivshmem/main.c:86 (discriminator 1)
    U8 ptNo = OS_MEM_DEFAULT_FSC_PT;
    3cebebfc:	52807d00 	mov	w0, #0x3e8                 	// #1000
    3cebec00:	94006086 	bl	3ced6e18 <PRT_TaskDelay>
/os/oscope/rtos/uniproton/demos/rk3566_rz3w/apps/ivshmem/main.c:87 (discriminator 1)
    struct TskInitParam param = {0};
    3cebec04:	90000000 	adrp	x0, 3cebe000 <os_asm_dcache_level>
    3cebec08:	91316000 	add	x0, x0, #0xc58
    3cebec0c:	f9400000 	ldr	x0, [x0]
    3cebec10:	94000300 	bl	3cebf810 <IrqSend>
/os/oscope/rtos/uniproton/demos/rk3566_rz3w/apps/ivshmem/main.c:85 (discriminator 1)
    U32 ret;
    3cebec14:	17fffff6 	b	3cebebec <TestTask2+0x1f4>
/os/oscope/rtos/uniproton/demos/rk3566_rz3w/apps/ivshmem/main.c:89

    // create task1
    3cebec18:	f84207fe 	ldr	x30, [sp], #32
    3cebec1c:	d65f03c0 	ret
    3cebec20:	3ced9c98 	.word	0x3ced9c98
    3cebec24:	00000000 	.word	0x00000000
    3cebec28:	3ced9cb0 	.word	0x3ced9cb0
    3cebec2c:	00000000 	.word	0x00000000
    3cebec30:	3ced9ce8 	.word	0x3ced9ce8
    3cebec34:	00000000 	.word	0x00000000
    3cebec38:	3ced9d10 	.word	0x3ced9d10
    3cebec3c:	00000000 	.word	0x00000000
    3cebec40:	3ced9d40 	.word	0x3ced9d40
    3cebec44:	00000000 	.word	0x00000000
    3cebec48:	3ced9d70 	.word	0x3ced9d70
    3cebec4c:	00000000 	.word	0x00000000
    3cebec50:	3ced9da8 	.word	0x3ced9da8
    3cebec54:	00000000 	.word	0x00000000
    3cebec58:	3cf85008 	.word	0x3cf85008
    3cebec5c:	00000000 	.word	0x00000000
    3cebec60:	3ced9dd8 	.word	0x3ced9dd8
    3cebec64:	00000000 	.word	0x00000000
    3cebec68:	3ced9df8 	.word	0x3ced9df8
    3cebec6c:	00000000 	.word	0x00000000

000000003cebec70 <OsTestInit>:
OsTestInit():
/os/oscope/rtos/uniproton/demos/rk3566_rz3w/apps/ivshmem/main.c:92
    param.stackAddr = PRT_MemAllocAlign(0, ptNo, 0x2000, MEM_ADDR_ALIGN_016);
    param.taskEntry = (TskEntryFunc)TestTask1;
    param.taskPrio = 25;
    3cebec70:	f81a0ffe 	str	x30, [sp, #-96]!
/os/oscope/rtos/uniproton/demos/rk3566_rz3w/apps/ivshmem/main.c:94
    param.name = "TestTask1";
    param.stackSize = 0x2000;
    3cebec74:	39017fff 	strb	wzr, [sp, #95]
/os/oscope/rtos/uniproton/demos/rk3566_rz3w/apps/ivshmem/main.c:95

    3cebec78:	a9017fff 	stp	xzr, xzr, [sp, #16]
    3cebec7c:	a9027fff 	stp	xzr, xzr, [sp, #32]
    3cebec80:	a9037fff 	stp	xzr, xzr, [sp, #48]
    3cebec84:	a9047fff 	stp	xzr, xzr, [sp, #64]
    3cebec88:	f9002bff 	str	xzr, [sp, #80]
/os/oscope/rtos/uniproton/demos/rk3566_rz3w/apps/ivshmem/main.c:98
    ret = PRT_TaskCreate(&g_testTskHandle[0], &param);
    if (ret) {
        return ret;
    3cebec8c:	52800083 	mov	w3, #0x4                   	// #4
    3cebec90:	52840002 	mov	w2, #0x2000                	// #8192
    3cebec94:	39417fe1 	ldrb	w1, [sp, #95]
    3cebec98:	52800000 	mov	w0, #0x0                   	// #0
    3cebec9c:	94005a4f 	bl	3ced55d8 <PRT_MemAllocAlign>
    3cebeca0:	f9002be0 	str	x0, [sp, #80]
/os/oscope/rtos/uniproton/demos/rk3566_rz3w/apps/ivshmem/main.c:99
    }
    3cebeca4:	90000000 	adrp	x0, 3cebe000 <os_asm_dcache_level>
    3cebeca8:	91378000 	add	x0, x0, #0xde0
    3cebecac:	f9400000 	ldr	x0, [x0]
    3cebecb0:	f9000be0 	str	x0, [sp, #16]
/os/oscope/rtos/uniproton/demos/rk3566_rz3w/apps/ivshmem/main.c:100

    3cebecb4:	52800320 	mov	w0, #0x19                  	// #25
    3cebecb8:	790033e0 	strh	w0, [sp, #24]
/os/oscope/rtos/uniproton/demos/rk3566_rz3w/apps/ivshmem/main.c:101
    ret = PRT_TaskResume(g_testTskHandle[0]);
    3cebecbc:	90000000 	adrp	x0, 3cebe000 <os_asm_dcache_level>
    3cebecc0:	9137a000 	add	x0, x0, #0xde8
    3cebecc4:	f9400000 	ldr	x0, [x0]
    3cebecc8:	f90027e0 	str	x0, [sp, #72]
/os/oscope/rtos/uniproton/demos/rk3566_rz3w/apps/ivshmem/main.c:102
    if (ret) {
    3cebeccc:	52840000 	mov	w0, #0x2000                	// #8192
    3cebecd0:	b90043e0 	str	w0, [sp, #64]
/os/oscope/rtos/uniproton/demos/rk3566_rz3w/apps/ivshmem/main.c:104
        return ret;
    }
    3cebecd4:	910043e0 	add	x0, sp, #0x10
    3cebecd8:	aa0003e1 	mov	x1, x0
    3cebecdc:	90000000 	adrp	x0, 3cebe000 <os_asm_dcache_level>
    3cebece0:	9137c000 	add	x0, x0, #0xdf0
    3cebece4:	f9400000 	ldr	x0, [x0]
    3cebece8:	9400601c 	bl	3ced6d58 <PRT_TaskCreate>
    3cebecec:	b9005be0 	str	w0, [sp, #88]
/os/oscope/rtos/uniproton/demos/rk3566_rz3w/apps/ivshmem/main.c:105

    3cebecf0:	b9405be0 	ldr	w0, [sp, #88]
    3cebecf4:	7100001f 	cmp	w0, #0x0
    3cebecf8:	54000060 	b.eq	3cebed04 <OsTestInit+0x94>  // b.none
/os/oscope/rtos/uniproton/demos/rk3566_rz3w/apps/ivshmem/main.c:106
    // create task2
    3cebecfc:	b9405be0 	ldr	w0, [sp, #88]
    3cebed00:	14000036 	b	3cebedd8 <OsTestInit+0x168>
/os/oscope/rtos/uniproton/demos/rk3566_rz3w/apps/ivshmem/main.c:109
    param.stackAddr = PRT_MemAllocAlign(0, ptNo, 0x2000, MEM_ADDR_ALIGN_016);
    param.taskEntry = (TskEntryFunc)TestTask2;
    param.taskPrio = 30;
    3cebed04:	90000000 	adrp	x0, 3cebe000 <os_asm_dcache_level>
    3cebed08:	9137c000 	add	x0, x0, #0xdf0
    3cebed0c:	f9400000 	ldr	x0, [x0]
    3cebed10:	b9400000 	ldr	w0, [x0]
    3cebed14:	94005229 	bl	3ced35b8 <PRT_TaskResume>
    3cebed18:	b9005be0 	str	w0, [sp, #88]
/os/oscope/rtos/uniproton/demos/rk3566_rz3w/apps/ivshmem/main.c:110
    param.name = "TestTask2";
    3cebed1c:	b9405be0 	ldr	w0, [sp, #88]
    3cebed20:	7100001f 	cmp	w0, #0x0
    3cebed24:	54000060 	b.eq	3cebed30 <OsTestInit+0xc0>  // b.none
/os/oscope/rtos/uniproton/demos/rk3566_rz3w/apps/ivshmem/main.c:111
    param.stackSize = 0x2000;
    3cebed28:	b9405be0 	ldr	w0, [sp, #88]
    3cebed2c:	1400002b 	b	3cebedd8 <OsTestInit+0x168>
/os/oscope/rtos/uniproton/demos/rk3566_rz3w/apps/ivshmem/main.c:115

    ret = PRT_TaskCreate(&g_testTskHandle[1], &param);
    if (ret) {
        return ret;
    3cebed30:	52800083 	mov	w3, #0x4                   	// #4
    3cebed34:	52840002 	mov	w2, #0x2000                	// #8192
    3cebed38:	39417fe1 	ldrb	w1, [sp, #95]
    3cebed3c:	52800000 	mov	w0, #0x0                   	// #0
    3cebed40:	94005a26 	bl	3ced55d8 <PRT_MemAllocAlign>
    3cebed44:	f9002be0 	str	x0, [sp, #80]
/os/oscope/rtos/uniproton/demos/rk3566_rz3w/apps/ivshmem/main.c:116
    }
    3cebed48:	90000000 	adrp	x0, 3cebe000 <os_asm_dcache_level>
    3cebed4c:	9137e000 	add	x0, x0, #0xdf8
    3cebed50:	f9400000 	ldr	x0, [x0]
    3cebed54:	f9000be0 	str	x0, [sp, #16]
/os/oscope/rtos/uniproton/demos/rk3566_rz3w/apps/ivshmem/main.c:117

    3cebed58:	528003c0 	mov	w0, #0x1e                  	// #30
    3cebed5c:	790033e0 	strh	w0, [sp, #24]
/os/oscope/rtos/uniproton/demos/rk3566_rz3w/apps/ivshmem/main.c:118
    ret = PRT_TaskResume(g_testTskHandle[1]);
    3cebed60:	90000000 	adrp	x0, 3cebe000 <os_asm_dcache_level>
    3cebed64:	91380000 	add	x0, x0, #0xe00
    3cebed68:	f9400000 	ldr	x0, [x0]
    3cebed6c:	f90027e0 	str	x0, [sp, #72]
/os/oscope/rtos/uniproton/demos/rk3566_rz3w/apps/ivshmem/main.c:119
    if (ret) {
    3cebed70:	52840000 	mov	w0, #0x2000                	// #8192
    3cebed74:	b90043e0 	str	w0, [sp, #64]
/os/oscope/rtos/uniproton/demos/rk3566_rz3w/apps/ivshmem/main.c:121
        return ret;
    }
    3cebed78:	910043e0 	add	x0, sp, #0x10
    3cebed7c:	aa0003e1 	mov	x1, x0
    3cebed80:	90000000 	adrp	x0, 3cebe000 <os_asm_dcache_level>
    3cebed84:	91382000 	add	x0, x0, #0xe08
    3cebed88:	f9400000 	ldr	x0, [x0]
    3cebed8c:	94005ff3 	bl	3ced6d58 <PRT_TaskCreate>
    3cebed90:	b9005be0 	str	w0, [sp, #88]
/os/oscope/rtos/uniproton/demos/rk3566_rz3w/apps/ivshmem/main.c:122

    3cebed94:	b9405be0 	ldr	w0, [sp, #88]
    3cebed98:	7100001f 	cmp	w0, #0x0
    3cebed9c:	54000060 	b.eq	3cebeda8 <OsTestInit+0x138>  // b.none
/os/oscope/rtos/uniproton/demos/rk3566_rz3w/apps/ivshmem/main.c:123
    return OS_OK;
    3cebeda0:	b9405be0 	ldr	w0, [sp, #88]
    3cebeda4:	1400000d 	b	3cebedd8 <OsTestInit+0x168>
/os/oscope/rtos/uniproton/demos/rk3566_rz3w/apps/ivshmem/main.c:126
}

U32 PRT_AppInit(void)
    3cebeda8:	90000000 	adrp	x0, 3cebe000 <os_asm_dcache_level>
    3cebedac:	9137c000 	add	x0, x0, #0xdf0
    3cebedb0:	f9400000 	ldr	x0, [x0]
    3cebedb4:	b9400400 	ldr	w0, [x0, #4]
    3cebedb8:	94005200 	bl	3ced35b8 <PRT_TaskResume>
    3cebedbc:	b9005be0 	str	w0, [sp, #88]
/os/oscope/rtos/uniproton/demos/rk3566_rz3w/apps/ivshmem/main.c:127
{
    3cebedc0:	b9405be0 	ldr	w0, [sp, #88]
    3cebedc4:	7100001f 	cmp	w0, #0x0
    3cebedc8:	54000060 	b.eq	3cebedd4 <OsTestInit+0x164>  // b.none
/os/oscope/rtos/uniproton/demos/rk3566_rz3w/apps/ivshmem/main.c:128
    U32 ret;
    3cebedcc:	b9405be0 	ldr	w0, [sp, #88]
    3cebedd0:	14000002 	b	3cebedd8 <OsTestInit+0x168>
/os/oscope/rtos/uniproton/demos/rk3566_rz3w/apps/ivshmem/main.c:131

    ret = PciInit();
    if (ret != OS_OK) {
    3cebedd4:	52800000 	mov	w0, #0x0                   	// #0
/os/oscope/rtos/uniproton/demos/rk3566_rz3w/apps/ivshmem/main.c:132 (discriminator 1)
        return ret;
    3cebedd8:	f84607fe 	ldr	x30, [sp], #96
    3cebeddc:	d65f03c0 	ret
    3cebede0:	3cebe9d0 	.word	0x3cebe9d0
    3cebede4:	00000000 	.word	0x00000000
    3cebede8:	3ced9e10 	.word	0x3ced9e10
    3cebedec:	00000000 	.word	0x00000000
    3cebedf0:	3cf05000 	.word	0x3cf05000
    3cebedf4:	00000000 	.word	0x00000000
    3cebedf8:	3cebe9f8 	.word	0x3cebe9f8
    3cebedfc:	00000000 	.word	0x00000000
    3cebee00:	3ced9e20 	.word	0x3ced9e20
    3cebee04:	00000000 	.word	0x00000000
    3cebee08:	3cf05004 	.word	0x3cf05004
    3cebee0c:	00000000 	.word	0x00000000

000000003cebee10 <PRT_AppInit>:
PRT_AppInit():
/os/oscope/rtos/uniproton/demos/rk3566_rz3w/apps/ivshmem/main.c:135
    }

    ret = OsTestInit();
    3cebee10:	f81e0ffe 	str	x30, [sp, #-32]!
/os/oscope/rtos/uniproton/demos/rk3566_rz3w/apps/ivshmem/main.c:138
    if (ret) {
        return ret;
    }
    3cebee14:	94000111 	bl	3cebf258 <PciInit>
    3cebee18:	b9001fe0 	str	w0, [sp, #28]
/os/oscope/rtos/uniproton/demos/rk3566_rz3w/apps/ivshmem/main.c:139
    ret = TestClkStart();
    3cebee1c:	b9401fe0 	ldr	w0, [sp, #28]
    3cebee20:	7100001f 	cmp	w0, #0x0
    3cebee24:	54000060 	b.eq	3cebee30 <PRT_AppInit+0x20>  // b.none
/os/oscope/rtos/uniproton/demos/rk3566_rz3w/apps/ivshmem/main.c:140
    if (ret) {
    3cebee28:	b9401fe0 	ldr	w0, [sp, #28]
    3cebee2c:	14000010 	b	3cebee6c <PRT_AppInit+0x5c>
/os/oscope/rtos/uniproton/demos/rk3566_rz3w/apps/ivshmem/main.c:143
        return ret;
    }

    3cebee30:	97ffff90 	bl	3cebec70 <OsTestInit>
    3cebee34:	b9001fe0 	str	w0, [sp, #28]
/os/oscope/rtos/uniproton/demos/rk3566_rz3w/apps/ivshmem/main.c:144
    return OS_OK;
    3cebee38:	b9401fe0 	ldr	w0, [sp, #28]
    3cebee3c:	7100001f 	cmp	w0, #0x0
    3cebee40:	54000060 	b.eq	3cebee4c <PRT_AppInit+0x3c>  // b.none
/os/oscope/rtos/uniproton/demos/rk3566_rz3w/apps/ivshmem/main.c:145
}
    3cebee44:	b9401fe0 	ldr	w0, [sp, #28]
    3cebee48:	14000009 	b	3cebee6c <PRT_AppInit+0x5c>
/os/oscope/rtos/uniproton/demos/rk3566_rz3w/apps/ivshmem/main.c:148

U32 PRT_HardDrvInit(void)
{
    3cebee4c:	940006a1 	bl	3cec08d0 <TestClkStart>
    3cebee50:	b9001fe0 	str	w0, [sp, #28]
/os/oscope/rtos/uniproton/demos/rk3566_rz3w/apps/ivshmem/main.c:149
    U32 ret;
    3cebee54:	b9401fe0 	ldr	w0, [sp, #28]
    3cebee58:	7100001f 	cmp	w0, #0x0
    3cebee5c:	54000060 	b.eq	3cebee68 <PRT_AppInit+0x58>  // b.none
/os/oscope/rtos/uniproton/demos/rk3566_rz3w/apps/ivshmem/main.c:150

    3cebee60:	b9401fe0 	ldr	w0, [sp, #28]
    3cebee64:	14000002 	b	3cebee6c <PRT_AppInit+0x5c>
/os/oscope/rtos/uniproton/demos/rk3566_rz3w/apps/ivshmem/main.c:153
    ret = OsHwiInit();
    if (ret) {
        return ret;
    3cebee68:	52800000 	mov	w0, #0x0                   	// #0
/os/oscope/rtos/uniproton/demos/rk3566_rz3w/apps/ivshmem/main.c:154
    }
    3cebee6c:	f84207fe 	ldr	x30, [sp], #32
    3cebee70:	d65f03c0 	ret
    3cebee74:	00000000 	udf	#0

000000003cebee78 <PRT_HardDrvInit>:
PRT_HardDrvInit():
/os/oscope/rtos/uniproton/demos/rk3566_rz3w/apps/ivshmem/main.c:157
    ret = TestShmemStart();
    if (ret) {
        PRT_Printf("ret error!\n");
    3cebee78:	f81e0ffe 	str	x30, [sp, #-32]!
/os/oscope/rtos/uniproton/demos/rk3566_rz3w/apps/ivshmem/main.c:160
        return ret;
    }
    /* uart */
    3cebee7c:	9400054b 	bl	3cec03a8 <OsHwiInit>
    3cebee80:	b9001fe0 	str	w0, [sp, #28]
/os/oscope/rtos/uniproton/demos/rk3566_rz3w/apps/ivshmem/main.c:161
    // ret = PRT_PrintfInit();
    3cebee84:	b9401fe0 	ldr	w0, [sp, #28]
    3cebee88:	7100001f 	cmp	w0, #0x0
    3cebee8c:	54000060 	b.eq	3cebee98 <PRT_HardDrvInit+0x20>  // b.none
/os/oscope/rtos/uniproton/demos/rk3566_rz3w/apps/ivshmem/main.c:162
    // if (ret) {
    3cebee90:	b9401fe0 	ldr	w0, [sp, #28]
    3cebee94:	1400000d 	b	3cebeec8 <PRT_HardDrvInit+0x50>
/os/oscope/rtos/uniproton/demos/rk3566_rz3w/apps/ivshmem/main.c:164
    //     return ret;
    // }
    3cebee98:	94000384 	bl	3cebfca8 <TestShmemStart>
    3cebee9c:	b9001fe0 	str	w0, [sp, #28]
/os/oscope/rtos/uniproton/demos/rk3566_rz3w/apps/ivshmem/main.c:165
    return OS_OK;
    3cebeea0:	b9401fe0 	ldr	w0, [sp, #28]
    3cebeea4:	7100001f 	cmp	w0, #0x0
    3cebeea8:	540000e0 	b.eq	3cebeec4 <PRT_HardDrvInit+0x4c>  // b.none
/os/oscope/rtos/uniproton/demos/rk3566_rz3w/apps/ivshmem/main.c:166
}
    3cebeeac:	90000000 	adrp	x0, 3cebe000 <os_asm_dcache_level>
    3cebeeb0:	913b4000 	add	x0, x0, #0xed0
    3cebeeb4:	f9400000 	ldr	x0, [x0]
    3cebeeb8:	940005ee 	bl	3cec0670 <PRT_Printf>
/os/oscope/rtos/uniproton/demos/rk3566_rz3w/apps/ivshmem/main.c:167

    3cebeebc:	b9401fe0 	ldr	w0, [sp, #28]
    3cebeec0:	14000002 	b	3cebeec8 <PRT_HardDrvInit+0x50>
/os/oscope/rtos/uniproton/demos/rk3566_rz3w/apps/ivshmem/main.c:175
}

S32 main(void)
{
    return OsConfigStart();
}
    3cebeec4:	52800000 	mov	w0, #0x0                   	// #0
/os/oscope/rtos/uniproton/demos/rk3566_rz3w/apps/ivshmem/main.c:176

    3cebeec8:	f84207fe 	ldr	x30, [sp], #32
    3cebeecc:	d65f03c0 	ret
    3cebeed0:	3ced9e30 	.word	0x3ced9e30
    3cebeed4:	00000000 	.word	0x00000000

000000003cebeed8 <PRT_HardBootInit>:
PRT_HardBootInit():
/os/oscope/rtos/uniproton/demos/rk3566_rz3w/apps/ivshmem/main.c:180
extern void *__wrap_memset(void *dest, int set, U32 len)
{
    if (dest == NULL || len == 0) {
        return NULL;
    3cebeed8:	d503201f 	nop
    3cebeedc:	d65f03c0 	ret

000000003cebeee0 <main>:
main():
/os/oscope/rtos/uniproton/demos/rk3566_rz3w/apps/ivshmem/main.c:183
    }

    char *ret = (char *)dest;
    3cebeee0:	f81f0ffe 	str	x30, [sp, #-16]!
/os/oscope/rtos/uniproton/demos/rk3566_rz3w/apps/ivshmem/main.c:184
    for (int i = 0; i < len; ++i) {
    3cebeee4:	9400077e 	bl	3cec0cdc <OsConfigStart>
/os/oscope/rtos/uniproton/demos/rk3566_rz3w/apps/ivshmem/main.c:185
        ret[i] = set;
    3cebeee8:	f84107fe 	ldr	x30, [sp], #16
    3cebeeec:	d65f03c0 	ret

000000003cebeef0 <__wrap_memset>:
__wrap_memset():
/os/oscope/rtos/uniproton/demos/rk3566_rz3w/apps/ivshmem/main.c:188
    }
    return ret;
}
    3cebeef0:	d10083ff 	sub	sp, sp, #0x20
    3cebeef4:	f90007e0 	str	x0, [sp, #8]
    3cebeef8:	b90007e1 	str	w1, [sp, #4]
    3cebeefc:	b90003e2 	str	w2, [sp]
/os/oscope/rtos/uniproton/demos/rk3566_rz3w/apps/ivshmem/main.c:189

    3cebef00:	f94007e0 	ldr	x0, [sp, #8]
    3cebef04:	f100001f 	cmp	x0, #0x0
    3cebef08:	54000080 	b.eq	3cebef18 <__wrap_memset+0x28>  // b.none
/os/oscope/rtos/uniproton/demos/rk3566_rz3w/apps/ivshmem/main.c:189 (discriminator 1)
    3cebef0c:	b94003e0 	ldr	w0, [sp]
    3cebef10:	7100001f 	cmp	w0, #0x0
    3cebef14:	54000061 	b.ne	3cebef20 <__wrap_memset+0x30>  // b.any
/os/oscope/rtos/uniproton/demos/rk3566_rz3w/apps/ivshmem/main.c:190
extern void *__wrap_memcpy(void *dest, const void *src, size_t size)
    3cebef18:	d2800000 	mov	x0, #0x0                   	// #0
    3cebef1c:	14000013 	b	3cebef68 <__wrap_memset+0x78>
/os/oscope/rtos/uniproton/demos/rk3566_rz3w/apps/ivshmem/main.c:193
{
    for (size_t i = 0; i < size; ++i) {
        *(char *)(dest + i) = *(char *)(src + i);
    3cebef20:	f94007e0 	ldr	x0, [sp, #8]
    3cebef24:	f9000be0 	str	x0, [sp, #16]
/os/oscope/rtos/uniproton/demos/rk3566_rz3w/apps/ivshmem/main.c:194
    }
    3cebef28:	b9001fff 	str	wzr, [sp, #28]
    3cebef2c:	1400000a 	b	3cebef54 <__wrap_memset+0x64>
/os/oscope/rtos/uniproton/demos/rk3566_rz3w/apps/ivshmem/main.c:195 (discriminator 3)
}
    3cebef30:	b9801fe0 	ldrsw	x0, [sp, #28]
    3cebef34:	f9400be1 	ldr	x1, [sp, #16]
    3cebef38:	8b000020 	add	x0, x1, x0
    3cebef3c:	b94007e1 	ldr	w1, [sp, #4]
    3cebef40:	12001c21 	and	w1, w1, #0xff
    3cebef44:	39000001 	strb	w1, [x0]
/os/oscope/rtos/uniproton/demos/rk3566_rz3w/apps/ivshmem/main.c:194 (discriminator 3)
    }
    3cebef48:	b9401fe0 	ldr	w0, [sp, #28]
    3cebef4c:	11000400 	add	w0, w0, #0x1
    3cebef50:	b9001fe0 	str	w0, [sp, #28]
/os/oscope/rtos/uniproton/demos/rk3566_rz3w/apps/ivshmem/main.c:194 (discriminator 1)
    3cebef54:	b9401fe0 	ldr	w0, [sp, #28]
    3cebef58:	b94003e1 	ldr	w1, [sp]
    3cebef5c:	6b00003f 	cmp	w1, w0
    3cebef60:	54fffe88 	b.hi	3cebef30 <__wrap_memset+0x40>  // b.pmore
/os/oscope/rtos/uniproton/demos/rk3566_rz3w/apps/ivshmem/main.c:197

    3cebef64:	f9400be0 	ldr	x0, [sp, #16]
/os/oscope/rtos/uniproton/demos/rk3566_rz3w/apps/ivshmem/main.c:198
    3cebef68:	910083ff 	add	sp, sp, #0x20
    3cebef6c:	d65f03c0 	ret

000000003cebef70 <__wrap_memcpy>:
__wrap_memcpy():
/os/oscope/rtos/uniproton/demos/rk3566_rz3w/apps/ivshmem/main.c:201
    3cebef70:	d100c3ff 	sub	sp, sp, #0x30
    3cebef74:	f9000fe0 	str	x0, [sp, #24]
    3cebef78:	f9000be1 	str	x1, [sp, #16]
    3cebef7c:	f90007e2 	str	x2, [sp, #8]
/os/oscope/rtos/uniproton/demos/rk3566_rz3w/apps/ivshmem/main.c:202
    3cebef80:	f90017ff 	str	xzr, [sp, #40]
    3cebef84:	1400000c 	b	3cebefb4 <__wrap_memcpy+0x44>
/os/oscope/rtos/uniproton/demos/rk3566_rz3w/apps/ivshmem/main.c:203 (discriminator 3)
    3cebef88:	f9400be1 	ldr	x1, [sp, #16]
    3cebef8c:	f94017e0 	ldr	x0, [sp, #40]
    3cebef90:	8b000021 	add	x1, x1, x0
    3cebef94:	f9400fe2 	ldr	x2, [sp, #24]
    3cebef98:	f94017e0 	ldr	x0, [sp, #40]
    3cebef9c:	8b000040 	add	x0, x2, x0
    3cebefa0:	39400021 	ldrb	w1, [x1]
    3cebefa4:	39000001 	strb	w1, [x0]
/os/oscope/rtos/uniproton/demos/rk3566_rz3w/apps/ivshmem/main.c:202 (discriminator 3)
    3cebefa8:	f94017e0 	ldr	x0, [sp, #40]
    3cebefac:	91000400 	add	x0, x0, #0x1
    3cebefb0:	f90017e0 	str	x0, [sp, #40]
/os/oscope/rtos/uniproton/demos/rk3566_rz3w/apps/ivshmem/main.c:202 (discriminator 1)
    3cebefb4:	f94017e1 	ldr	x1, [sp, #40]
    3cebefb8:	f94007e0 	ldr	x0, [sp, #8]
    3cebefbc:	eb00003f 	cmp	x1, x0
    3cebefc0:	54fffe43 	b.cc	3cebef88 <__wrap_memcpy+0x18>  // b.lo, b.ul, b.last
/os/oscope/rtos/uniproton/demos/rk3566_rz3w/apps/ivshmem/main.c:205
    3cebefc4:	d503201f 	nop
    3cebefc8:	9100c3ff 	add	sp, sp, #0x30
    3cebefcc:	d65f03c0 	ret

000000003cebefd0 <MmioRead8>:
MmioRead8():
/os/oscope/rtos/uniproton/demos/rk3566_rz3w/apps/ivshmem/ivshmem_demo.c:21

extern int irqCounter;
extern struct IvshmemDeviceData dev;

static inline U8 MmioRead8(void *address)
{
    3cebefd0:	d10043ff 	sub	sp, sp, #0x10
    3cebefd4:	f90007e0 	str	x0, [sp, #8]
/os/oscope/rtos/uniproton/demos/rk3566_rz3w/apps/ivshmem/ivshmem_demo.c:22
    return *(volatile U8 *)address;
    3cebefd8:	f94007e0 	ldr	x0, [sp, #8]
    3cebefdc:	39400000 	ldrb	w0, [x0]
    3cebefe0:	12001c00 	and	w0, w0, #0xff
/os/oscope/rtos/uniproton/demos/rk3566_rz3w/apps/ivshmem/ivshmem_demo.c:23
}
    3cebefe4:	910043ff 	add	sp, sp, #0x10
    3cebefe8:	d65f03c0 	ret

000000003cebefec <MmioRead16>:
MmioRead16():
/os/oscope/rtos/uniproton/demos/rk3566_rz3w/apps/ivshmem/ivshmem_demo.c:26

static inline U16 MmioRead16(void *address)
{
    3cebefec:	d10043ff 	sub	sp, sp, #0x10
    3cebeff0:	f90007e0 	str	x0, [sp, #8]
/os/oscope/rtos/uniproton/demos/rk3566_rz3w/apps/ivshmem/ivshmem_demo.c:27
    return *(volatile U16 *)address;
    3cebeff4:	f94007e0 	ldr	x0, [sp, #8]
    3cebeff8:	79400000 	ldrh	w0, [x0]
    3cebeffc:	12003c00 	and	w0, w0, #0xffff
/os/oscope/rtos/uniproton/demos/rk3566_rz3w/apps/ivshmem/ivshmem_demo.c:28
}
    3cebf000:	910043ff 	add	sp, sp, #0x10
    3cebf004:	d65f03c0 	ret

000000003cebf008 <MmioRead32>:
MmioRead32():
/os/oscope/rtos/uniproton/demos/rk3566_rz3w/apps/ivshmem/ivshmem_demo.c:31

U32 MmioRead32(void *address)
{
    3cebf008:	d10043ff 	sub	sp, sp, #0x10
    3cebf00c:	f90007e0 	str	x0, [sp, #8]
/os/oscope/rtos/uniproton/demos/rk3566_rz3w/apps/ivshmem/ivshmem_demo.c:32
    return *(volatile U32 *)address;
    3cebf010:	f94007e0 	ldr	x0, [sp, #8]
    3cebf014:	b9400000 	ldr	w0, [x0]
/os/oscope/rtos/uniproton/demos/rk3566_rz3w/apps/ivshmem/ivshmem_demo.c:33
}
    3cebf018:	910043ff 	add	sp, sp, #0x10
    3cebf01c:	d65f03c0 	ret

000000003cebf020 <SynchronizationBarrier>:
SynchronizationBarrier():
/os/oscope/rtos/uniproton/demos/rk3566_rz3w/apps/ivshmem/ivshmem_demo.c:37

static inline void SynchronizationBarrier(void)
{
    DSB(ish);
    3cebf020:	d5033b9f 	dsb	ish
/os/oscope/rtos/uniproton/demos/rk3566_rz3w/apps/ivshmem/ivshmem_demo.c:38
}
    3cebf024:	d503201f 	nop
    3cebf028:	d65f03c0 	ret

000000003cebf02c <MmioWrite8>:
MmioWrite8():
/os/oscope/rtos/uniproton/demos/rk3566_rz3w/apps/ivshmem/ivshmem_demo.c:41

static inline void MmioWrite8(void *address, U8 value)
{
    3cebf02c:	d10043ff 	sub	sp, sp, #0x10
    3cebf030:	f90007e0 	str	x0, [sp, #8]
    3cebf034:	39001fe1 	strb	w1, [sp, #7]
/os/oscope/rtos/uniproton/demos/rk3566_rz3w/apps/ivshmem/ivshmem_demo.c:42
    *(volatile U8 *)address = value;
    3cebf038:	f94007e0 	ldr	x0, [sp, #8]
    3cebf03c:	39401fe1 	ldrb	w1, [sp, #7]
    3cebf040:	39000001 	strb	w1, [x0]
/os/oscope/rtos/uniproton/demos/rk3566_rz3w/apps/ivshmem/ivshmem_demo.c:43
}
    3cebf044:	d503201f 	nop
    3cebf048:	910043ff 	add	sp, sp, #0x10
    3cebf04c:	d65f03c0 	ret

000000003cebf050 <MmioWrite16>:
MmioWrite16():
/os/oscope/rtos/uniproton/demos/rk3566_rz3w/apps/ivshmem/ivshmem_demo.c:46

static inline void MmioWrite16(void *address, U16 value)
{
    3cebf050:	d10043ff 	sub	sp, sp, #0x10
    3cebf054:	f90007e0 	str	x0, [sp, #8]
    3cebf058:	79000fe1 	strh	w1, [sp, #6]
/os/oscope/rtos/uniproton/demos/rk3566_rz3w/apps/ivshmem/ivshmem_demo.c:47
    *(volatile U16 *)address = value;
    3cebf05c:	f94007e0 	ldr	x0, [sp, #8]
    3cebf060:	79400fe1 	ldrh	w1, [sp, #6]
    3cebf064:	79000001 	strh	w1, [x0]
/os/oscope/rtos/uniproton/demos/rk3566_rz3w/apps/ivshmem/ivshmem_demo.c:48
}
    3cebf068:	d503201f 	nop
    3cebf06c:	910043ff 	add	sp, sp, #0x10
    3cebf070:	d65f03c0 	ret

000000003cebf074 <MmioWrite32>:
MmioWrite32():
/os/oscope/rtos/uniproton/demos/rk3566_rz3w/apps/ivshmem/ivshmem_demo.c:51

void MmioWrite32(void *address, U32 value)
{
    3cebf074:	d10043ff 	sub	sp, sp, #0x10
    3cebf078:	f90007e0 	str	x0, [sp, #8]
    3cebf07c:	b90007e1 	str	w1, [sp, #4]
/os/oscope/rtos/uniproton/demos/rk3566_rz3w/apps/ivshmem/ivshmem_demo.c:52
    *(volatile U32 *)address = value;
    3cebf080:	f94007e0 	ldr	x0, [sp, #8]
    3cebf084:	b94007e1 	ldr	w1, [sp, #4]
    3cebf088:	b9000001 	str	w1, [x0]
/os/oscope/rtos/uniproton/demos/rk3566_rz3w/apps/ivshmem/ivshmem_demo.c:53
}
    3cebf08c:	d503201f 	nop
    3cebf090:	910043ff 	add	sp, sp, #0x10
    3cebf094:	d65f03c0 	ret

000000003cebf098 <Zalloc>:
Zalloc():
/os/oscope/rtos/uniproton/demos/rk3566_rz3w/apps/ivshmem/ivshmem_demo.c:56

void *Zalloc(unsigned long size, unsigned long align)
{
    3cebf098:	f81d0ffe 	str	x30, [sp, #-48]!
    3cebf09c:	f9000fe0 	str	x0, [sp, #24]
    3cebf0a0:	f9000be1 	str	x1, [sp, #16]
/os/oscope/rtos/uniproton/demos/rk3566_rz3w/apps/ivshmem/ivshmem_demo.c:57
    void *base = PRT_MemAlloc(0, 0, size);
    3cebf0a4:	f9400fe0 	ldr	x0, [sp, #24]
    3cebf0a8:	2a0003e2 	mov	w2, w0
    3cebf0ac:	52800001 	mov	w1, #0x0                   	// #0
    3cebf0b0:	52800000 	mov	w0, #0x0                   	// #0
    3cebf0b4:	9400592f 	bl	3ced5570 <PRT_MemAlloc>
    3cebf0b8:	f90017e0 	str	x0, [sp, #40]
/os/oscope/rtos/uniproton/demos/rk3566_rz3w/apps/ivshmem/ivshmem_demo.c:58
    if (base == NULL) {
    3cebf0bc:	f94017e0 	ldr	x0, [sp, #40]
    3cebf0c0:	f100001f 	cmp	x0, #0x0
    3cebf0c4:	54000061 	b.ne	3cebf0d0 <Zalloc+0x38>  // b.any
/os/oscope/rtos/uniproton/demos/rk3566_rz3w/apps/ivshmem/ivshmem_demo.c:59
        return NULL;
    3cebf0c8:	d2800000 	mov	x0, #0x0                   	// #0
    3cebf0cc:	14000007 	b	3cebf0e8 <Zalloc+0x50>
/os/oscope/rtos/uniproton/demos/rk3566_rz3w/apps/ivshmem/ivshmem_demo.c:61
    }
    memset_s(base, size, 0, size);
    3cebf0d0:	f9400fe3 	ldr	x3, [sp, #24]
    3cebf0d4:	52800002 	mov	w2, #0x0                   	// #0
    3cebf0d8:	f9400fe1 	ldr	x1, [sp, #24]
    3cebf0dc:	f94017e0 	ldr	x0, [sp, #40]
    3cebf0e0:	94000a55 	bl	3cec1a34 <memset_s>
/os/oscope/rtos/uniproton/demos/rk3566_rz3w/apps/ivshmem/ivshmem_demo.c:63

    return base;
    3cebf0e4:	f94017e0 	ldr	x0, [sp, #40]
/os/oscope/rtos/uniproton/demos/rk3566_rz3w/apps/ivshmem/ivshmem_demo.c:64
}
    3cebf0e8:	f84307fe 	ldr	x30, [sp], #48
    3cebf0ec:	d65f03c0 	ret

000000003cebf0f0 <MapRange>:
MapRange():
/os/oscope/rtos/uniproton/demos/rk3566_rz3w/apps/ivshmem/ivshmem_demo.c:67

int MapRange(void *start, unsigned long size, enum MapType mapType)
{
    3cebf0f0:	f81b0ffe 	str	x30, [sp, #-80]!
    3cebf0f4:	f90017e0 	str	x0, [sp, #40]
    3cebf0f8:	f90013e1 	str	x1, [sp, #32]
    3cebf0fc:	b9001fe2 	str	w2, [sp, #28]
/os/oscope/rtos/uniproton/demos/rk3566_rz3w/apps/ivshmem/ivshmem_demo.c:72
    U64 addr, pmdEntry;
    unsigned pgdIndex;
    U64 *pmd;

    addr = (unsigned long)start;
    3cebf100:	f94017e0 	ldr	x0, [sp, #40]
    3cebf104:	f90027e0 	str	x0, [sp, #72]
/os/oscope/rtos/uniproton/demos/rk3566_rz3w/apps/ivshmem/ivshmem_demo.c:74

    size += (addr & ~HUGE_PAGE_MASK) + HUGE_PAGE_SIZE - 1;
    3cebf108:	f94027e0 	ldr	x0, [sp, #72]
    3cebf10c:	92405001 	and	x1, x0, #0x1fffff
    3cebf110:	f94013e0 	ldr	x0, [sp, #32]
    3cebf114:	8b000021 	add	x1, x1, x0
    3cebf118:	b24053e0 	mov	x0, #0x1fffff              	// #2097151
    3cebf11c:	8b000020 	add	x0, x1, x0
    3cebf120:	f90013e0 	str	x0, [sp, #32]
/os/oscope/rtos/uniproton/demos/rk3566_rz3w/apps/ivshmem/ivshmem_demo.c:75
    size &= HUGE_PAGE_MASK;
    3cebf124:	f94013e0 	ldr	x0, [sp, #32]
    3cebf128:	926ba800 	and	x0, x0, #0xffffffffffe00000
    3cebf12c:	f90013e0 	str	x0, [sp, #32]
/os/oscope/rtos/uniproton/demos/rk3566_rz3w/apps/ivshmem/ivshmem_demo.c:77

    while (size) {
    3cebf130:	14000040 	b	3cebf230 <MapRange+0x140>
/os/oscope/rtos/uniproton/demos/rk3566_rz3w/apps/ivshmem/ivshmem_demo.c:78
        pgdIndex = PGD_INDEX(addr);
    3cebf134:	f94027e0 	ldr	x0, [sp, #72]
    3cebf138:	d35efc00 	lsr	x0, x0, #30
    3cebf13c:	b90037e0 	str	w0, [sp, #52]
/os/oscope/rtos/uniproton/demos/rk3566_rz3w/apps/ivshmem/ivshmem_demo.c:79
        if (!(pageDirectory[pgdIndex] & LONG_DESC_TABLE)) {
    3cebf140:	90000000 	adrp	x0, 3cebf000 <MmioRead16+0x14>
    3cebf144:	91094000 	add	x0, x0, #0x250
    3cebf148:	f9400000 	ldr	x0, [x0]
    3cebf14c:	b94037e1 	ldr	w1, [sp, #52]
    3cebf150:	f8617800 	ldr	x0, [x0, x1, lsl #3]
    3cebf154:	92400400 	and	x0, x0, #0x3
    3cebf158:	f100001f 	cmp	x0, #0x0
    3cebf15c:	54000261 	b.ne	3cebf1a8 <MapRange+0xb8>  // b.any
/os/oscope/rtos/uniproton/demos/rk3566_rz3w/apps/ivshmem/ivshmem_demo.c:80
            pmd = Zalloc(PAGE_SIZE, PAGE_SIZE);
    3cebf160:	d2820001 	mov	x1, #0x1000                	// #4096
    3cebf164:	d2820000 	mov	x0, #0x1000                	// #4096
    3cebf168:	97ffffcc 	bl	3cebf098 <Zalloc>
    3cebf16c:	f9001fe0 	str	x0, [sp, #56]
/os/oscope/rtos/uniproton/demos/rk3566_rz3w/apps/ivshmem/ivshmem_demo.c:81
            if (pmd == NULL) {
    3cebf170:	f9401fe0 	ldr	x0, [sp, #56]
    3cebf174:	f100001f 	cmp	x0, #0x0
    3cebf178:	54000061 	b.ne	3cebf184 <MapRange+0x94>  // b.any
/os/oscope/rtos/uniproton/demos/rk3566_rz3w/apps/ivshmem/ivshmem_demo.c:82
                return -1;
    3cebf17c:	12800000 	mov	w0, #0xffffffff            	// #-1
    3cebf180:	14000031 	b	3cebf244 <MapRange+0x154>
/os/oscope/rtos/uniproton/demos/rk3566_rz3w/apps/ivshmem/ivshmem_demo.c:85
            }
            /* ensure the page table walker will see the zeroes */
            SynchronizationBarrier();
    3cebf184:	97ffffa7 	bl	3cebf020 <SynchronizationBarrier>
/os/oscope/rtos/uniproton/demos/rk3566_rz3w/apps/ivshmem/ivshmem_demo.c:87

            pageDirectory[pgdIndex] = (unsigned long)pmd | LONG_DESC_TABLE;
    3cebf188:	f9401fe0 	ldr	x0, [sp, #56]
    3cebf18c:	b2400402 	orr	x2, x0, #0x3
    3cebf190:	90000000 	adrp	x0, 3cebf000 <MmioRead16+0x14>
    3cebf194:	91094000 	add	x0, x0, #0x250
    3cebf198:	f9400000 	ldr	x0, [x0]
    3cebf19c:	b94037e1 	ldr	w1, [sp, #52]
    3cebf1a0:	f8217802 	str	x2, [x0, x1, lsl #3]
    3cebf1a4:	14000008 	b	3cebf1c4 <MapRange+0xd4>
/os/oscope/rtos/uniproton/demos/rk3566_rz3w/apps/ivshmem/ivshmem_demo.c:89
        } else {
            pmd = (U64*)(unsigned long)(pageDirectory[pgdIndex] & ~LONG_DESC_TABLE);
    3cebf1a8:	90000000 	adrp	x0, 3cebf000 <MmioRead16+0x14>
    3cebf1ac:	91094000 	add	x0, x0, #0x250
    3cebf1b0:	f9400000 	ldr	x0, [x0]
    3cebf1b4:	b94037e1 	ldr	w1, [sp, #52]
    3cebf1b8:	f8617800 	ldr	x0, [x0, x1, lsl #3]
    3cebf1bc:	927ef400 	and	x0, x0, #0xfffffffffffffffc
    3cebf1c0:	f9001fe0 	str	x0, [sp, #56]
/os/oscope/rtos/uniproton/demos/rk3566_rz3w/apps/ivshmem/ivshmem_demo.c:92
        }

        pmdEntry = addr & HUGE_PAGE_MASK;
    3cebf1c4:	f94027e0 	ldr	x0, [sp, #72]
    3cebf1c8:	926ba800 	and	x0, x0, #0xffffffffffe00000
    3cebf1cc:	f90023e0 	str	x0, [sp, #64]
/os/oscope/rtos/uniproton/demos/rk3566_rz3w/apps/ivshmem/ivshmem_demo.c:93
        pmdEntry |= LATTR_AF | LATTR_INNER_SHAREABLE | LATTR_AP_RW_EL1 | LONG_DESC_BLOCK;
    3cebf1d0:	f94023e1 	ldr	x1, [sp, #64]
    3cebf1d4:	d280e020 	mov	x0, #0x701                 	// #1793
    3cebf1d8:	aa000020 	orr	x0, x1, x0
    3cebf1dc:	f90023e0 	str	x0, [sp, #64]
/os/oscope/rtos/uniproton/demos/rk3566_rz3w/apps/ivshmem/ivshmem_demo.c:94
        if (mapType == MAP_CACHED) {
    3cebf1e0:	b9401fe0 	ldr	w0, [sp, #28]
    3cebf1e4:	7100001f 	cmp	w0, #0x0
    3cebf1e8:	54000080 	b.eq	3cebf1f8 <MapRange+0x108>  // b.none
/os/oscope/rtos/uniproton/demos/rk3566_rz3w/apps/ivshmem/ivshmem_demo.c:97
            pmdEntry |= LATTR_MAIR(0);
        } else {
            pmdEntry |= LATTR_MAIR(1);
    3cebf1ec:	f94023e0 	ldr	x0, [sp, #64]
    3cebf1f0:	b27e0000 	orr	x0, x0, #0x4
    3cebf1f4:	f90023e0 	str	x0, [sp, #64]
/os/oscope/rtos/uniproton/demos/rk3566_rz3w/apps/ivshmem/ivshmem_demo.c:100
        }

        pmd[PMD_INDEX(addr)] = pmdEntry;
    3cebf1f8:	f94027e0 	ldr	x0, [sp, #72]
    3cebf1fc:	d355fc00 	lsr	x0, x0, #21
    3cebf200:	92402000 	and	x0, x0, #0x1ff
    3cebf204:	d37df000 	lsl	x0, x0, #3
    3cebf208:	f9401fe1 	ldr	x1, [sp, #56]
    3cebf20c:	8b000020 	add	x0, x1, x0
    3cebf210:	f94023e1 	ldr	x1, [sp, #64]
    3cebf214:	f9000001 	str	x1, [x0]
/os/oscope/rtos/uniproton/demos/rk3566_rz3w/apps/ivshmem/ivshmem_demo.c:101
        size -= HUGE_PAGE_SIZE;
    3cebf218:	f94013e0 	ldr	x0, [sp, #32]
    3cebf21c:	d1480000 	sub	x0, x0, #0x200, lsl #12
    3cebf220:	f90013e0 	str	x0, [sp, #32]
/os/oscope/rtos/uniproton/demos/rk3566_rz3w/apps/ivshmem/ivshmem_demo.c:102
        addr += HUGE_PAGE_SIZE;
    3cebf224:	f94027e0 	ldr	x0, [sp, #72]
    3cebf228:	91480000 	add	x0, x0, #0x200, lsl #12
    3cebf22c:	f90027e0 	str	x0, [sp, #72]
/os/oscope/rtos/uniproton/demos/rk3566_rz3w/apps/ivshmem/ivshmem_demo.c:77
    while (size) {
    3cebf230:	f94013e0 	ldr	x0, [sp, #32]
    3cebf234:	f100001f 	cmp	x0, #0x0
    3cebf238:	54fff7e1 	b.ne	3cebf134 <MapRange+0x44>  // b.any
/os/oscope/rtos/uniproton/demos/rk3566_rz3w/apps/ivshmem/ivshmem_demo.c:110
    /*
     * As long es we only add entries and do not modify entries, a
     * synchronization barrier is enough to propagate changes. Otherwise we
     * need to flush the TLB.
     */
    SynchronizationBarrier();
    3cebf23c:	97ffff79 	bl	3cebf020 <SynchronizationBarrier>
/os/oscope/rtos/uniproton/demos/rk3566_rz3w/apps/ivshmem/ivshmem_demo.c:111
    return OS_OK;
    3cebf240:	52800000 	mov	w0, #0x0                   	// #0
/os/oscope/rtos/uniproton/demos/rk3566_rz3w/apps/ivshmem/ivshmem_demo.c:112
}
    3cebf244:	f84507fe 	ldr	x30, [sp], #80
    3cebf248:	d65f03c0 	ret
    3cebf24c:	d503201f 	nop
    3cebf250:	3cf86000 	.word	0x3cf86000
    3cebf254:	00000000 	.word	0x00000000

000000003cebf258 <PciInit>:
PciInit():
/os/oscope/rtos/uniproton/demos/rk3566_rz3w/apps/ivshmem/ivshmem_demo.c:115

int PciInit(void)
{
    3cebf258:	f81e0ffe 	str	x30, [sp, #-32]!
/os/oscope/rtos/uniproton/demos/rk3566_rz3w/apps/ivshmem/ivshmem_demo.c:116
    void *mmcfg = (void *)(unsigned long)commRegion->pciMmconfigBase;
    3cebf25c:	d299ffe0 	mov	x0, #0xcfff                	// #53247
    3cebf260:	f2a79d60 	movk	x0, #0x3ceb, lsl #16
    3cebf264:	3940e001 	ldrb	w1, [x0, #56]
    3cebf268:	3940e402 	ldrb	w2, [x0, #57]
    3cebf26c:	d378dc42 	lsl	x2, x2, #8
    3cebf270:	aa010041 	orr	x1, x2, x1
    3cebf274:	3940e802 	ldrb	w2, [x0, #58]
    3cebf278:	d370bc42 	lsl	x2, x2, #16
    3cebf27c:	aa010041 	orr	x1, x2, x1
    3cebf280:	3940ec02 	ldrb	w2, [x0, #59]
    3cebf284:	d3689c42 	lsl	x2, x2, #24
    3cebf288:	aa010041 	orr	x1, x2, x1
    3cebf28c:	3940f002 	ldrb	w2, [x0, #60]
    3cebf290:	d3607c42 	lsl	x2, x2, #32
    3cebf294:	aa010041 	orr	x1, x2, x1
    3cebf298:	3940f402 	ldrb	w2, [x0, #61]
    3cebf29c:	d3585c42 	lsl	x2, x2, #40
    3cebf2a0:	aa010041 	orr	x1, x2, x1
    3cebf2a4:	3940f802 	ldrb	w2, [x0, #62]
    3cebf2a8:	d3503c42 	lsl	x2, x2, #48
    3cebf2ac:	aa010041 	orr	x1, x2, x1
    3cebf2b0:	3940fc00 	ldrb	w0, [x0, #63]
    3cebf2b4:	d3481c00 	lsl	x0, x0, #56
    3cebf2b8:	aa010000 	orr	x0, x0, x1
    3cebf2bc:	f9000fe0 	str	x0, [sp, #24]
/os/oscope/rtos/uniproton/demos/rk3566_rz3w/apps/ivshmem/ivshmem_demo.c:119
    int ret;

    if (mmcfg) {
    3cebf2c0:	f9400fe0 	ldr	x0, [sp, #24]
    3cebf2c4:	f100001f 	cmp	x0, #0x0
    3cebf2c8:	54000160 	b.eq	3cebf2f4 <PciInit+0x9c>  // b.none
/os/oscope/rtos/uniproton/demos/rk3566_rz3w/apps/ivshmem/ivshmem_demo.c:120
        ret = MapRange(mmcfg, MAP_RANGE_SIZE, MAP_UNCACHED);
    3cebf2cc:	52800022 	mov	w2, #0x1                   	// #1
    3cebf2d0:	d2a00201 	mov	x1, #0x100000              	// #1048576
    3cebf2d4:	f9400fe0 	ldr	x0, [sp, #24]
    3cebf2d8:	97ffff86 	bl	3cebf0f0 <MapRange>
    3cebf2dc:	b90017e0 	str	w0, [sp, #20]
/os/oscope/rtos/uniproton/demos/rk3566_rz3w/apps/ivshmem/ivshmem_demo.c:121
        if (ret != OS_OK) {
    3cebf2e0:	b94017e0 	ldr	w0, [sp, #20]
    3cebf2e4:	7100001f 	cmp	w0, #0x0
    3cebf2e8:	54000060 	b.eq	3cebf2f4 <PciInit+0x9c>  // b.none
/os/oscope/rtos/uniproton/demos/rk3566_rz3w/apps/ivshmem/ivshmem_demo.c:122
            return -1;
    3cebf2ec:	12800000 	mov	w0, #0xffffffff            	// #-1
    3cebf2f0:	14000002 	b	3cebf2f8 <PciInit+0xa0>
/os/oscope/rtos/uniproton/demos/rk3566_rz3w/apps/ivshmem/ivshmem_demo.c:125
        }
    }
    return OS_OK;
    3cebf2f4:	52800000 	mov	w0, #0x0                   	// #0
/os/oscope/rtos/uniproton/demos/rk3566_rz3w/apps/ivshmem/ivshmem_demo.c:126
}
    3cebf2f8:	f84207fe 	ldr	x30, [sp], #32
    3cebf2fc:	d65f03c0 	ret

000000003cebf300 <PciGetDeviceCfgBase>:
PciGetDeviceCfgBase():
/os/oscope/rtos/uniproton/demos/rk3566_rz3w/apps/ivshmem/ivshmem_demo.c:129

static void *PciGetDeviceCfgBase(U16 bdf)
{
    3cebf300:	d10083ff 	sub	sp, sp, #0x20
    3cebf304:	79001fe0 	strh	w0, [sp, #14]
/os/oscope/rtos/uniproton/demos/rk3566_rz3w/apps/ivshmem/ivshmem_demo.c:130
    void *mmcfg = (void *)(unsigned long)commRegion->pciMmconfigBase;
    3cebf308:	d299ffe0 	mov	x0, #0xcfff                	// #53247
    3cebf30c:	f2a79d60 	movk	x0, #0x3ceb, lsl #16
    3cebf310:	3940e001 	ldrb	w1, [x0, #56]
    3cebf314:	3940e402 	ldrb	w2, [x0, #57]
    3cebf318:	d378dc42 	lsl	x2, x2, #8
    3cebf31c:	aa010041 	orr	x1, x2, x1
    3cebf320:	3940e802 	ldrb	w2, [x0, #58]
    3cebf324:	d370bc42 	lsl	x2, x2, #16
    3cebf328:	aa010041 	orr	x1, x2, x1
    3cebf32c:	3940ec02 	ldrb	w2, [x0, #59]
    3cebf330:	d3689c42 	lsl	x2, x2, #24
    3cebf334:	aa010041 	orr	x1, x2, x1
    3cebf338:	3940f002 	ldrb	w2, [x0, #60]
    3cebf33c:	d3607c42 	lsl	x2, x2, #32
    3cebf340:	aa010041 	orr	x1, x2, x1
    3cebf344:	3940f402 	ldrb	w2, [x0, #61]
    3cebf348:	d3585c42 	lsl	x2, x2, #40
    3cebf34c:	aa010041 	orr	x1, x2, x1
    3cebf350:	3940f802 	ldrb	w2, [x0, #62]
    3cebf354:	d3503c42 	lsl	x2, x2, #48
    3cebf358:	aa010041 	orr	x1, x2, x1
    3cebf35c:	3940fc00 	ldrb	w0, [x0, #63]
    3cebf360:	d3481c00 	lsl	x0, x0, #56
    3cebf364:	aa010000 	orr	x0, x0, x1
    3cebf368:	f9000fe0 	str	x0, [sp, #24]
/os/oscope/rtos/uniproton/demos/rk3566_rz3w/apps/ivshmem/ivshmem_demo.c:132

    return mmcfg + ((unsigned long)bdf << 12);
    3cebf36c:	79401fe0 	ldrh	w0, [sp, #14]
    3cebf370:	d374cc00 	lsl	x0, x0, #12
    3cebf374:	f9400fe1 	ldr	x1, [sp, #24]
    3cebf378:	8b000020 	add	x0, x1, x0
/os/oscope/rtos/uniproton/demos/rk3566_rz3w/apps/ivshmem/ivshmem_demo.c:133
}
    3cebf37c:	910083ff 	add	sp, sp, #0x20
    3cebf380:	d65f03c0 	ret

000000003cebf384 <PciCfgRead>:
PciCfgRead():
/os/oscope/rtos/uniproton/demos/rk3566_rz3w/apps/ivshmem/ivshmem_demo.c:136

U32 PciCfgRead(U16 bdf, unsigned int addr, unsigned int size)
{
    3cebf384:	f81d0ffe 	str	x30, [sp, #-48]!
    3cebf388:	79003fe0 	strh	w0, [sp, #30]
    3cebf38c:	b9001be1 	str	w1, [sp, #24]
    3cebf390:	b90017e2 	str	w2, [sp, #20]
/os/oscope/rtos/uniproton/demos/rk3566_rz3w/apps/ivshmem/ivshmem_demo.c:137
    void *cfgAddr = PciGetDeviceCfgBase(bdf) + addr;
    3cebf394:	79403fe0 	ldrh	w0, [sp, #30]
    3cebf398:	97ffffda 	bl	3cebf300 <PciGetDeviceCfgBase>
    3cebf39c:	aa0003e1 	mov	x1, x0
    3cebf3a0:	b9401be0 	ldr	w0, [sp, #24]
    3cebf3a4:	8b000020 	add	x0, x1, x0
    3cebf3a8:	f90017e0 	str	x0, [sp, #40]
/os/oscope/rtos/uniproton/demos/rk3566_rz3w/apps/ivshmem/ivshmem_demo.c:139

    switch (size) {
    3cebf3ac:	b94017e0 	ldr	w0, [sp, #20]
    3cebf3b0:	7100101f 	cmp	w0, #0x4
    3cebf3b4:	54000260 	b.eq	3cebf400 <PciCfgRead+0x7c>  // b.none
    3cebf3b8:	b94017e0 	ldr	w0, [sp, #20]
    3cebf3bc:	7100101f 	cmp	w0, #0x4
    3cebf3c0:	54000268 	b.hi	3cebf40c <PciCfgRead+0x88>  // b.pmore
    3cebf3c4:	b94017e0 	ldr	w0, [sp, #20]
    3cebf3c8:	7100041f 	cmp	w0, #0x1
    3cebf3cc:	540000a0 	b.eq	3cebf3e0 <PciCfgRead+0x5c>  // b.none
    3cebf3d0:	b94017e0 	ldr	w0, [sp, #20]
    3cebf3d4:	7100081f 	cmp	w0, #0x2
    3cebf3d8:	540000c0 	b.eq	3cebf3f0 <PciCfgRead+0x6c>  // b.none
    3cebf3dc:	1400000c 	b	3cebf40c <PciCfgRead+0x88>
/os/oscope/rtos/uniproton/demos/rk3566_rz3w/apps/ivshmem/ivshmem_demo.c:141
        case BYTES_NUMBER_ONE:
            return MmioRead8(cfgAddr);
    3cebf3e0:	f94017e0 	ldr	x0, [sp, #40]
    3cebf3e4:	97fffefb 	bl	3cebefd0 <MmioRead8>
    3cebf3e8:	12001c00 	and	w0, w0, #0xff
    3cebf3ec:	14000009 	b	3cebf410 <PciCfgRead+0x8c>
/os/oscope/rtos/uniproton/demos/rk3566_rz3w/apps/ivshmem/ivshmem_demo.c:143
        case BYTES_NUMBER_TWO:
            return MmioRead16(cfgAddr);
    3cebf3f0:	f94017e0 	ldr	x0, [sp, #40]
    3cebf3f4:	97fffefe 	bl	3cebefec <MmioRead16>
    3cebf3f8:	12003c00 	and	w0, w0, #0xffff
    3cebf3fc:	14000005 	b	3cebf410 <PciCfgRead+0x8c>
/os/oscope/rtos/uniproton/demos/rk3566_rz3w/apps/ivshmem/ivshmem_demo.c:145
        case BYTES_NUMBER_FOUR:
            return MmioRead32(cfgAddr);
    3cebf400:	f94017e0 	ldr	x0, [sp, #40]
    3cebf404:	97ffff01 	bl	3cebf008 <MmioRead32>
    3cebf408:	14000002 	b	3cebf410 <PciCfgRead+0x8c>
/os/oscope/rtos/uniproton/demos/rk3566_rz3w/apps/ivshmem/ivshmem_demo.c:147
        default:
            return -1;
    3cebf40c:	12800000 	mov	w0, #0xffffffff            	// #-1
/os/oscope/rtos/uniproton/demos/rk3566_rz3w/apps/ivshmem/ivshmem_demo.c:149
    }
}
    3cebf410:	f84307fe 	ldr	x30, [sp], #48
    3cebf414:	d65f03c0 	ret

000000003cebf418 <PciCfgRead64>:
PciCfgRead64():
/os/oscope/rtos/uniproton/demos/rk3566_rz3w/apps/ivshmem/ivshmem_demo.c:152

U64 PciCfgRead64(U16 bdf, unsigned int addr)
{
    3cebf418:	a9be7bf3 	stp	x19, x30, [sp, #-32]!
    3cebf41c:	79003fe0 	strh	w0, [sp, #30]
    3cebf420:	b9001be1 	str	w1, [sp, #24]
/os/oscope/rtos/uniproton/demos/rk3566_rz3w/apps/ivshmem/ivshmem_demo.c:153
    return PciCfgRead(bdf, addr, BYTES_NUMBER_FOUR) | ((U64)PciCfgRead(bdf, addr + 4, BYTES_NUMBER_FOUR) << 32);
    3cebf424:	52800082 	mov	w2, #0x4                   	// #4
    3cebf428:	b9401be1 	ldr	w1, [sp, #24]
    3cebf42c:	79403fe0 	ldrh	w0, [sp, #30]
    3cebf430:	97ffffd5 	bl	3cebf384 <PciCfgRead>
    3cebf434:	2a0003f3 	mov	w19, w0
    3cebf438:	b9401be0 	ldr	w0, [sp, #24]
    3cebf43c:	11001000 	add	w0, w0, #0x4
    3cebf440:	52800082 	mov	w2, #0x4                   	// #4
    3cebf444:	2a0003e1 	mov	w1, w0
    3cebf448:	79403fe0 	ldrh	w0, [sp, #30]
    3cebf44c:	97ffffce 	bl	3cebf384 <PciCfgRead>
    3cebf450:	2a0003e0 	mov	w0, w0
    3cebf454:	d3607c00 	lsl	x0, x0, #32
    3cebf458:	aa000260 	orr	x0, x19, x0
/os/oscope/rtos/uniproton/demos/rk3566_rz3w/apps/ivshmem/ivshmem_demo.c:154
}
    3cebf45c:	a8c27bf3 	ldp	x19, x30, [sp], #32
    3cebf460:	d65f03c0 	ret

000000003cebf464 <PciCfgWrite>:
PciCfgWrite():
/os/oscope/rtos/uniproton/demos/rk3566_rz3w/apps/ivshmem/ivshmem_demo.c:157

void PciCfgWrite(U16 bdf, unsigned int addr, U32 value, unsigned int size)
{
    3cebf464:	f81d0ffe 	str	x30, [sp, #-48]!
    3cebf468:	79003fe0 	strh	w0, [sp, #30]
    3cebf46c:	b9001be1 	str	w1, [sp, #24]
    3cebf470:	b90017e2 	str	w2, [sp, #20]
    3cebf474:	b90013e3 	str	w3, [sp, #16]
/os/oscope/rtos/uniproton/demos/rk3566_rz3w/apps/ivshmem/ivshmem_demo.c:158
    void *cfgAddr = PciGetDeviceCfgBase(bdf) + addr;
    3cebf478:	79403fe0 	ldrh	w0, [sp, #30]
    3cebf47c:	97ffffa1 	bl	3cebf300 <PciGetDeviceCfgBase>
    3cebf480:	aa0003e1 	mov	x1, x0
    3cebf484:	b9401be0 	ldr	w0, [sp, #24]
    3cebf488:	8b000020 	add	x0, x1, x0
    3cebf48c:	f90017e0 	str	x0, [sp, #40]
/os/oscope/rtos/uniproton/demos/rk3566_rz3w/apps/ivshmem/ivshmem_demo.c:160

    switch (size) {
    3cebf490:	b94013e0 	ldr	w0, [sp, #16]
    3cebf494:	7100101f 	cmp	w0, #0x4
    3cebf498:	540002e0 	b.eq	3cebf4f4 <PciCfgWrite+0x90>  // b.none
    3cebf49c:	b94013e0 	ldr	w0, [sp, #16]
    3cebf4a0:	7100101f 	cmp	w0, #0x4
    3cebf4a4:	54000308 	b.hi	3cebf504 <PciCfgWrite+0xa0>  // b.pmore
    3cebf4a8:	b94013e0 	ldr	w0, [sp, #16]
    3cebf4ac:	7100041f 	cmp	w0, #0x1
    3cebf4b0:	540000a0 	b.eq	3cebf4c4 <PciCfgWrite+0x60>  // b.none
    3cebf4b4:	b94013e0 	ldr	w0, [sp, #16]
    3cebf4b8:	7100081f 	cmp	w0, #0x2
    3cebf4bc:	54000100 	b.eq	3cebf4dc <PciCfgWrite+0x78>  // b.none
/os/oscope/rtos/uniproton/demos/rk3566_rz3w/apps/ivshmem/ivshmem_demo.c:171
            break;
        case BYTES_NUMBER_FOUR:
            MmioWrite32(cfgAddr, value);
            break;
        default:
            return;
    3cebf4c0:	14000011 	b	3cebf504 <PciCfgWrite+0xa0>
/os/oscope/rtos/uniproton/demos/rk3566_rz3w/apps/ivshmem/ivshmem_demo.c:162
            MmioWrite8(cfgAddr, value);
    3cebf4c4:	b94017e0 	ldr	w0, [sp, #20]
    3cebf4c8:	12001c00 	and	w0, w0, #0xff
    3cebf4cc:	2a0003e1 	mov	w1, w0
    3cebf4d0:	f94017e0 	ldr	x0, [sp, #40]
    3cebf4d4:	97fffed6 	bl	3cebf02c <MmioWrite8>
/os/oscope/rtos/uniproton/demos/rk3566_rz3w/apps/ivshmem/ivshmem_demo.c:163
            break;
    3cebf4d8:	1400000c 	b	3cebf508 <PciCfgWrite+0xa4>
/os/oscope/rtos/uniproton/demos/rk3566_rz3w/apps/ivshmem/ivshmem_demo.c:165
            MmioWrite16(cfgAddr, value);
    3cebf4dc:	b94017e0 	ldr	w0, [sp, #20]
    3cebf4e0:	12003c00 	and	w0, w0, #0xffff
    3cebf4e4:	2a0003e1 	mov	w1, w0
    3cebf4e8:	f94017e0 	ldr	x0, [sp, #40]
    3cebf4ec:	97fffed9 	bl	3cebf050 <MmioWrite16>
/os/oscope/rtos/uniproton/demos/rk3566_rz3w/apps/ivshmem/ivshmem_demo.c:166
            break;
    3cebf4f0:	14000006 	b	3cebf508 <PciCfgWrite+0xa4>
/os/oscope/rtos/uniproton/demos/rk3566_rz3w/apps/ivshmem/ivshmem_demo.c:168
            MmioWrite32(cfgAddr, value);
    3cebf4f4:	b94017e1 	ldr	w1, [sp, #20]
    3cebf4f8:	f94017e0 	ldr	x0, [sp, #40]
    3cebf4fc:	97fffede 	bl	3cebf074 <MmioWrite32>
/os/oscope/rtos/uniproton/demos/rk3566_rz3w/apps/ivshmem/ivshmem_demo.c:169
            break;
    3cebf500:	14000002 	b	3cebf508 <PciCfgWrite+0xa4>
/os/oscope/rtos/uniproton/demos/rk3566_rz3w/apps/ivshmem/ivshmem_demo.c:171
            return;
    3cebf504:	d503201f 	nop
/os/oscope/rtos/uniproton/demos/rk3566_rz3w/apps/ivshmem/ivshmem_demo.c:173
    }
}
    3cebf508:	f84307fe 	ldr	x30, [sp], #48
    3cebf50c:	d65f03c0 	ret

000000003cebf510 <PciDeviceFind>:
PciDeviceFind():
/os/oscope/rtos/uniproton/demos/rk3566_rz3w/apps/ivshmem/ivshmem_demo.c:176

int PciDeviceFind(U16 vendor, U16 device, U16 startBdf)
{
    3cebf510:	f81d0ffe 	str	x30, [sp, #-48]!
    3cebf514:	79003fe0 	strh	w0, [sp, #30]
    3cebf518:	79003be1 	strh	w1, [sp, #28]
    3cebf51c:	790037e2 	strh	w2, [sp, #26]
/os/oscope/rtos/uniproton/demos/rk3566_rz3w/apps/ivshmem/ivshmem_demo.c:180
    unsigned int bdf;
    U16 id;

    for (bdf = startBdf; bdf < MAX_DEVICE_COUNT; bdf++) {
    3cebf520:	794037e0 	ldrh	w0, [sp, #26]
    3cebf524:	b9002fe0 	str	w0, [sp, #44]
    3cebf528:	14000026 	b	3cebf5c0 <PciDeviceFind+0xb0>
/os/oscope/rtos/uniproton/demos/rk3566_rz3w/apps/ivshmem/ivshmem_demo.c:181
        id = PciCfgRead(bdf, PCI_CFG_VENDOR_ID, 2);
    3cebf52c:	b9402fe0 	ldr	w0, [sp, #44]
    3cebf530:	12003c00 	and	w0, w0, #0xffff
    3cebf534:	52800042 	mov	w2, #0x2                   	// #2
    3cebf538:	52800001 	mov	w1, #0x0                   	// #0
    3cebf53c:	97ffff92 	bl	3cebf384 <PciCfgRead>
    3cebf540:	790057e0 	strh	w0, [sp, #42]
/os/oscope/rtos/uniproton/demos/rk3566_rz3w/apps/ivshmem/ivshmem_demo.c:182
        if (id == PCI_ID_ANY || (vendor != PCI_ID_ANY && vendor != id)) {
    3cebf544:	794057e1 	ldrh	w1, [sp, #42]
    3cebf548:	529fffe0 	mov	w0, #0xffff                	// #65535
    3cebf54c:	6b00003f 	cmp	w1, w0
    3cebf550:	54000300 	b.eq	3cebf5b0 <PciDeviceFind+0xa0>  // b.none
/os/oscope/rtos/uniproton/demos/rk3566_rz3w/apps/ivshmem/ivshmem_demo.c:182 (discriminator 1)
    3cebf554:	79403fe1 	ldrh	w1, [sp, #30]
    3cebf558:	529fffe0 	mov	w0, #0xffff                	// #65535
    3cebf55c:	6b00003f 	cmp	w1, w0
    3cebf560:	540000a0 	b.eq	3cebf574 <PciDeviceFind+0x64>  // b.none
/os/oscope/rtos/uniproton/demos/rk3566_rz3w/apps/ivshmem/ivshmem_demo.c:182 (discriminator 2)
    3cebf564:	79403fe1 	ldrh	w1, [sp, #30]
    3cebf568:	794057e0 	ldrh	w0, [sp, #42]
    3cebf56c:	6b00003f 	cmp	w1, w0
    3cebf570:	54000201 	b.ne	3cebf5b0 <PciDeviceFind+0xa0>  // b.any
/os/oscope/rtos/uniproton/demos/rk3566_rz3w/apps/ivshmem/ivshmem_demo.c:186
            continue;
        }
 
        if (device == PCI_ID_ANY || PciCfgRead(bdf, PCI_CFG_DEVICE_ID, 2) == device) {
    3cebf574:	79403be1 	ldrh	w1, [sp, #28]
    3cebf578:	529fffe0 	mov	w0, #0xffff                	// #65535
    3cebf57c:	6b00003f 	cmp	w1, w0
    3cebf580:	54000140 	b.eq	3cebf5a8 <PciDeviceFind+0x98>  // b.none
/os/oscope/rtos/uniproton/demos/rk3566_rz3w/apps/ivshmem/ivshmem_demo.c:186 (discriminator 1)
    3cebf584:	b9402fe0 	ldr	w0, [sp, #44]
    3cebf588:	12003c00 	and	w0, w0, #0xffff
    3cebf58c:	52800042 	mov	w2, #0x2                   	// #2
    3cebf590:	52800041 	mov	w1, #0x2                   	// #2
    3cebf594:	97ffff7c 	bl	3cebf384 <PciCfgRead>
    3cebf598:	2a0003e1 	mov	w1, w0
    3cebf59c:	79403be0 	ldrh	w0, [sp, #28]
    3cebf5a0:	6b00003f 	cmp	w1, w0
    3cebf5a4:	54000081 	b.ne	3cebf5b4 <PciDeviceFind+0xa4>  // b.any
/os/oscope/rtos/uniproton/demos/rk3566_rz3w/apps/ivshmem/ivshmem_demo.c:187
            return bdf;
    3cebf5a8:	b9402fe0 	ldr	w0, [sp, #44]
    3cebf5ac:	1400000a 	b	3cebf5d4 <PciDeviceFind+0xc4>
/os/oscope/rtos/uniproton/demos/rk3566_rz3w/apps/ivshmem/ivshmem_demo.c:183
            continue;
    3cebf5b0:	d503201f 	nop
/os/oscope/rtos/uniproton/demos/rk3566_rz3w/apps/ivshmem/ivshmem_demo.c:180 (discriminator 2)
    for (bdf = startBdf; bdf < MAX_DEVICE_COUNT; bdf++) {
    3cebf5b4:	b9402fe0 	ldr	w0, [sp, #44]
    3cebf5b8:	11000400 	add	w0, w0, #0x1
    3cebf5bc:	b9002fe0 	str	w0, [sp, #44]
/os/oscope/rtos/uniproton/demos/rk3566_rz3w/apps/ivshmem/ivshmem_demo.c:180 (discriminator 1)
    3cebf5c0:	b9402fe1 	ldr	w1, [sp, #44]
    3cebf5c4:	529fffe0 	mov	w0, #0xffff                	// #65535
    3cebf5c8:	6b00003f 	cmp	w1, w0
    3cebf5cc:	54fffb09 	b.ls	3cebf52c <PciDeviceFind+0x1c>  // b.plast
/os/oscope/rtos/uniproton/demos/rk3566_rz3w/apps/ivshmem/ivshmem_demo.c:190
        }
    }
    return -1;
    3cebf5d0:	12800000 	mov	w0, #0xffffffff            	// #-1
/os/oscope/rtos/uniproton/demos/rk3566_rz3w/apps/ivshmem/ivshmem_demo.c:191
}
    3cebf5d4:	f84307fe 	ldr	x30, [sp], #48
    3cebf5d8:	d65f03c0 	ret

000000003cebf5dc <PciCapFind>:
PciCapFind():
/os/oscope/rtos/uniproton/demos/rk3566_rz3w/apps/ivshmem/ivshmem_demo.c:194

int PciCapFind(U16 bdf, U16 cap)
{
    3cebf5dc:	f81d0ffe 	str	x30, [sp, #-48]!
    3cebf5e0:	79003fe0 	strh	w0, [sp, #30]
    3cebf5e4:	79003be1 	strh	w1, [sp, #28]
/os/oscope/rtos/uniproton/demos/rk3566_rz3w/apps/ivshmem/ivshmem_demo.c:195
    U8 pos = PCI_CFG_CAP_PTR - 1;
    3cebf5e8:	52800660 	mov	w0, #0x33                  	// #51
    3cebf5ec:	3900bfe0 	strb	w0, [sp, #47]
/os/oscope/rtos/uniproton/demos/rk3566_rz3w/apps/ivshmem/ivshmem_demo.c:197

    if (!(PciCfgRead(bdf, PCI_CFG_STATUS, BYTES_NUMBER_TWO) & PCI_STS_CAPS)) {
    3cebf5f0:	52800042 	mov	w2, #0x2                   	// #2
    3cebf5f4:	528000c1 	mov	w1, #0x6                   	// #6
    3cebf5f8:	79403fe0 	ldrh	w0, [sp, #30]
    3cebf5fc:	97ffff62 	bl	3cebf384 <PciCfgRead>
    3cebf600:	121c0000 	and	w0, w0, #0x10
    3cebf604:	7100001f 	cmp	w0, #0x0
    3cebf608:	54000061 	b.ne	3cebf614 <PciCapFind+0x38>  // b.any
/os/oscope/rtos/uniproton/demos/rk3566_rz3w/apps/ivshmem/ivshmem_demo.c:198
        return -1;
    3cebf60c:	12800000 	mov	w0, #0xffffffff            	// #-1
    3cebf610:	14000017 	b	3cebf66c <PciCapFind+0x90>
/os/oscope/rtos/uniproton/demos/rk3566_rz3w/apps/ivshmem/ivshmem_demo.c:202
    }

    while (1) {
        pos = PciCfgRead(bdf, pos + 1, BYTES_NUMBER_ONE);
    3cebf614:	3940bfe0 	ldrb	w0, [sp, #47]
    3cebf618:	11000400 	add	w0, w0, #0x1
    3cebf61c:	52800022 	mov	w2, #0x1                   	// #1
    3cebf620:	2a0003e1 	mov	w1, w0
    3cebf624:	79403fe0 	ldrh	w0, [sp, #30]
    3cebf628:	97ffff57 	bl	3cebf384 <PciCfgRead>
    3cebf62c:	3900bfe0 	strb	w0, [sp, #47]
/os/oscope/rtos/uniproton/demos/rk3566_rz3w/apps/ivshmem/ivshmem_demo.c:203
        if (pos == 0) {
    3cebf630:	3940bfe0 	ldrb	w0, [sp, #47]
    3cebf634:	7100001f 	cmp	w0, #0x0
    3cebf638:	54000061 	b.ne	3cebf644 <PciCapFind+0x68>  // b.any
/os/oscope/rtos/uniproton/demos/rk3566_rz3w/apps/ivshmem/ivshmem_demo.c:204
            return -1;
    3cebf63c:	12800000 	mov	w0, #0xffffffff            	// #-1
    3cebf640:	1400000b 	b	3cebf66c <PciCapFind+0x90>
/os/oscope/rtos/uniproton/demos/rk3566_rz3w/apps/ivshmem/ivshmem_demo.c:206
        }
        if (PciCfgRead(bdf, pos, BYTES_NUMBER_ONE) == cap) {
    3cebf644:	3940bfe0 	ldrb	w0, [sp, #47]
    3cebf648:	52800022 	mov	w2, #0x1                   	// #1
    3cebf64c:	2a0003e1 	mov	w1, w0
    3cebf650:	79403fe0 	ldrh	w0, [sp, #30]
    3cebf654:	97ffff4c 	bl	3cebf384 <PciCfgRead>
    3cebf658:	2a0003e1 	mov	w1, w0
    3cebf65c:	79403be0 	ldrh	w0, [sp, #28]
    3cebf660:	6b00003f 	cmp	w1, w0
    3cebf664:	54fffd81 	b.ne	3cebf614 <PciCapFind+0x38>  // b.any
/os/oscope/rtos/uniproton/demos/rk3566_rz3w/apps/ivshmem/ivshmem_demo.c:207
            return pos;
    3cebf668:	3940bfe0 	ldrb	w0, [sp, #47]
/os/oscope/rtos/uniproton/demos/rk3566_rz3w/apps/ivshmem/ivshmem_demo.c:211
        }
    }
    return -1;
}
    3cebf66c:	f84307fe 	ldr	x30, [sp], #48
    3cebf670:	d65f03c0 	ret
    3cebf674:	00000000 	udf	#0

000000003cebf678 <PrintShmem>:
PrintShmem():
/os/oscope/rtos/uniproton/demos/rk3566_rz3w/apps/ivshmem/ivshmem_demo.c:214

void PrintShmem(struct IvshmemDeviceData *d)
{
    3cebf678:	f81e0ffe 	str	x30, [sp, #-32]!
    3cebf67c:	f9000fe0 	str	x0, [sp, #24]
/os/oscope/rtos/uniproton/demos/rk3566_rz3w/apps/ivshmem/ivshmem_demo.c:215
    PRT_Printf("state[0] = %d\n", d->stateTable[0]);
    3cebf680:	f9400fe0 	ldr	x0, [sp, #24]
    3cebf684:	f9400800 	ldr	x0, [x0, #16]
    3cebf688:	b9400000 	ldr	w0, [x0]
    3cebf68c:	2a0003e1 	mov	w1, w0
    3cebf690:	90000000 	adrp	x0, 3cebf000 <MmioRead16+0x14>
    3cebf694:	911f2000 	add	x0, x0, #0x7c8
    3cebf698:	f9400000 	ldr	x0, [x0]
    3cebf69c:	940003f5 	bl	3cec0670 <PRT_Printf>
/os/oscope/rtos/uniproton/demos/rk3566_rz3w/apps/ivshmem/ivshmem_demo.c:216
    PRT_Printf("state[1] = %d\n", d->stateTable[1]);
    3cebf6a0:	f9400fe0 	ldr	x0, [sp, #24]
    3cebf6a4:	f9400800 	ldr	x0, [x0, #16]
    3cebf6a8:	91001000 	add	x0, x0, #0x4
    3cebf6ac:	b9400000 	ldr	w0, [x0]
    3cebf6b0:	2a0003e1 	mov	w1, w0
    3cebf6b4:	90000000 	adrp	x0, 3cebf000 <MmioRead16+0x14>
    3cebf6b8:	911f4000 	add	x0, x0, #0x7d0
    3cebf6bc:	f9400000 	ldr	x0, [x0]
    3cebf6c0:	940003ec 	bl	3cec0670 <PRT_Printf>
/os/oscope/rtos/uniproton/demos/rk3566_rz3w/apps/ivshmem/ivshmem_demo.c:217
    PRT_Printf("state[2] = %d\n", d->stateTable[2]);
    3cebf6c4:	f9400fe0 	ldr	x0, [sp, #24]
    3cebf6c8:	f9400800 	ldr	x0, [x0, #16]
    3cebf6cc:	91002000 	add	x0, x0, #0x8
    3cebf6d0:	b9400000 	ldr	w0, [x0]
    3cebf6d4:	2a0003e1 	mov	w1, w0
    3cebf6d8:	90000000 	adrp	x0, 3cebf000 <MmioRead16+0x14>
    3cebf6dc:	911f6000 	add	x0, x0, #0x7d8
    3cebf6e0:	f9400000 	ldr	x0, [x0]
    3cebf6e4:	940003e3 	bl	3cec0670 <PRT_Printf>
/os/oscope/rtos/uniproton/demos/rk3566_rz3w/apps/ivshmem/ivshmem_demo.c:218
    PRT_Printf("rw[0] = %d\n", d->rwSection[0]);
    3cebf6e8:	f9400fe0 	ldr	x0, [sp, #24]
    3cebf6ec:	f9401000 	ldr	x0, [x0, #32]
    3cebf6f0:	b9400000 	ldr	w0, [x0]
    3cebf6f4:	2a0003e1 	mov	w1, w0
    3cebf6f8:	90000000 	adrp	x0, 3cebf000 <MmioRead16+0x14>
    3cebf6fc:	911f8000 	add	x0, x0, #0x7e0
    3cebf700:	f9400000 	ldr	x0, [x0]
    3cebf704:	940003db 	bl	3cec0670 <PRT_Printf>
/os/oscope/rtos/uniproton/demos/rk3566_rz3w/apps/ivshmem/ivshmem_demo.c:219
    PRT_Printf("rw[1] = %d\n", d->rwSection[1]);
    3cebf708:	f9400fe0 	ldr	x0, [sp, #24]
    3cebf70c:	f9401000 	ldr	x0, [x0, #32]
    3cebf710:	91001000 	add	x0, x0, #0x4
    3cebf714:	b9400000 	ldr	w0, [x0]
    3cebf718:	2a0003e1 	mov	w1, w0
    3cebf71c:	90000000 	adrp	x0, 3cebf000 <MmioRead16+0x14>
    3cebf720:	911fa000 	add	x0, x0, #0x7e8
    3cebf724:	f9400000 	ldr	x0, [x0]
    3cebf728:	940003d2 	bl	3cec0670 <PRT_Printf>
/os/oscope/rtos/uniproton/demos/rk3566_rz3w/apps/ivshmem/ivshmem_demo.c:220
    PRT_Printf("rw[2] = %d\n", d->rwSection[2]);
    3cebf72c:	f9400fe0 	ldr	x0, [sp, #24]
    3cebf730:	f9401000 	ldr	x0, [x0, #32]
    3cebf734:	91002000 	add	x0, x0, #0x8
    3cebf738:	b9400000 	ldr	w0, [x0]
    3cebf73c:	2a0003e1 	mov	w1, w0
    3cebf740:	90000000 	adrp	x0, 3cebf000 <MmioRead16+0x14>
    3cebf744:	911fc000 	add	x0, x0, #0x7f0
    3cebf748:	f9400000 	ldr	x0, [x0]
    3cebf74c:	940003c9 	bl	3cec0670 <PRT_Printf>
/os/oscope/rtos/uniproton/demos/rk3566_rz3w/apps/ivshmem/ivshmem_demo.c:221
    PRT_Printf("in@0x0000 = %d\n", d->inSections[0/4]);
    3cebf750:	f9400fe0 	ldr	x0, [sp, #24]
    3cebf754:	f9401800 	ldr	x0, [x0, #48]
    3cebf758:	b9400000 	ldr	w0, [x0]
    3cebf75c:	2a0003e1 	mov	w1, w0
    3cebf760:	90000000 	adrp	x0, 3cebf000 <MmioRead16+0x14>
    3cebf764:	911fe000 	add	x0, x0, #0x7f8
    3cebf768:	f9400000 	ldr	x0, [x0]
    3cebf76c:	940003c1 	bl	3cec0670 <PRT_Printf>
/os/oscope/rtos/uniproton/demos/rk3566_rz3w/apps/ivshmem/ivshmem_demo.c:222
    PRT_Printf("in@0x2000 = %d\n", d->inSections[IN_SECTION_ADDRESS_TWO/4]);
    3cebf770:	f9400fe0 	ldr	x0, [sp, #24]
    3cebf774:	f9401800 	ldr	x0, [x0, #48]
    3cebf778:	91400800 	add	x0, x0, #0x2, lsl #12
    3cebf77c:	b9400000 	ldr	w0, [x0]
    3cebf780:	2a0003e1 	mov	w1, w0
    3cebf784:	90000000 	adrp	x0, 3cebf000 <MmioRead16+0x14>
    3cebf788:	91200000 	add	x0, x0, #0x800
    3cebf78c:	f9400000 	ldr	x0, [x0]
    3cebf790:	940003b8 	bl	3cec0670 <PRT_Printf>
/os/oscope/rtos/uniproton/demos/rk3566_rz3w/apps/ivshmem/ivshmem_demo.c:223
    PRT_Printf("in@0x4000 = %d\n", d->inSections[IN_SECTION_ADDRESS_THREE/4]);
    3cebf794:	f9400fe0 	ldr	x0, [sp, #24]
    3cebf798:	f9401800 	ldr	x0, [x0, #48]
    3cebf79c:	91401000 	add	x0, x0, #0x4, lsl #12
    3cebf7a0:	b9400000 	ldr	w0, [x0]
    3cebf7a4:	2a0003e1 	mov	w1, w0
    3cebf7a8:	90000000 	adrp	x0, 3cebf000 <MmioRead16+0x14>
    3cebf7ac:	91202000 	add	x0, x0, #0x808
    3cebf7b0:	f9400000 	ldr	x0, [x0]
    3cebf7b4:	940003af 	bl	3cec0670 <PRT_Printf>
/os/oscope/rtos/uniproton/demos/rk3566_rz3w/apps/ivshmem/ivshmem_demo.c:224
}
    3cebf7b8:	d503201f 	nop
    3cebf7bc:	f84207fe 	ldr	x30, [sp], #32
    3cebf7c0:	d65f03c0 	ret
    3cebf7c4:	d503201f 	nop
    3cebf7c8:	3ced9e40 	.word	0x3ced9e40
    3cebf7cc:	00000000 	.word	0x00000000
    3cebf7d0:	3ced9e50 	.word	0x3ced9e50
    3cebf7d4:	00000000 	.word	0x00000000
    3cebf7d8:	3ced9e60 	.word	0x3ced9e60
    3cebf7dc:	00000000 	.word	0x00000000
    3cebf7e0:	3ced9e70 	.word	0x3ced9e70
    3cebf7e4:	00000000 	.word	0x00000000
    3cebf7e8:	3ced9e80 	.word	0x3ced9e80
    3cebf7ec:	00000000 	.word	0x00000000
    3cebf7f0:	3ced9e90 	.word	0x3ced9e90
    3cebf7f4:	00000000 	.word	0x00000000
    3cebf7f8:	3ced9ea0 	.word	0x3ced9ea0
    3cebf7fc:	00000000 	.word	0x00000000
    3cebf800:	3ced9eb0 	.word	0x3ced9eb0
    3cebf804:	00000000 	.word	0x00000000
    3cebf808:	3ced9ec0 	.word	0x3ced9ec0
    3cebf80c:	00000000 	.word	0x00000000

000000003cebf810 <IrqSend>:
IrqSend():
/os/oscope/rtos/uniproton/demos/rk3566_rz3w/apps/ivshmem/ivshmem_demo.c:227

void IrqSend(struct IvshmemDeviceData *d)
{
    3cebf810:	f81d0ffe 	str	x30, [sp, #-48]!
    3cebf814:	f9000fe0 	str	x0, [sp, #24]
/os/oscope/rtos/uniproton/demos/rk3566_rz3w/apps/ivshmem/ivshmem_demo.c:228
    unsigned int target = 0;
    3cebf818:	b9002fff 	str	wzr, [sp, #44]
/os/oscope/rtos/uniproton/demos/rk3566_rz3w/apps/ivshmem/ivshmem_demo.c:229
    U32 intNum = 0;
    3cebf81c:	b9002bff 	str	wzr, [sp, #40]
/os/oscope/rtos/uniproton/demos/rk3566_rz3w/apps/ivshmem/ivshmem_demo.c:231

    PRT_Printf("\nIVSHMEM: sending IRQ %d to peer %d\n", intNum, target);
    3cebf820:	b9402fe2 	ldr	w2, [sp, #44]
    3cebf824:	b9402be1 	ldr	w1, [sp, #40]
    3cebf828:	90000000 	adrp	x0, 3cebf000 <MmioRead16+0x14>
    3cebf82c:	9121c000 	add	x0, x0, #0x870
    3cebf830:	f9400000 	ldr	x0, [x0]
    3cebf834:	9400038f 	bl	3cec0670 <PRT_Printf>
/os/oscope/rtos/uniproton/demos/rk3566_rz3w/apps/ivshmem/ivshmem_demo.c:232
    MmioWrite32(&d->registers->doorbell, intNum | (target << 16));
    3cebf838:	f9400fe0 	ldr	x0, [sp, #24]
    3cebf83c:	f9400400 	ldr	x0, [x0, #8]
    3cebf840:	91003002 	add	x2, x0, #0xc
    3cebf844:	b9402fe0 	ldr	w0, [sp, #44]
    3cebf848:	53103c01 	lsl	w1, w0, #16
    3cebf84c:	b9402be0 	ldr	w0, [sp, #40]
    3cebf850:	2a000020 	orr	w0, w1, w0
    3cebf854:	2a0003e1 	mov	w1, w0
    3cebf858:	aa0203e0 	mov	x0, x2
    3cebf85c:	97fffe06 	bl	3cebf074 <MmioWrite32>
/os/oscope/rtos/uniproton/demos/rk3566_rz3w/apps/ivshmem/ivshmem_demo.c:233
}
    3cebf860:	d503201f 	nop
    3cebf864:	f84307fe 	ldr	x30, [sp], #48
    3cebf868:	d65f03c0 	ret
    3cebf86c:	d503201f 	nop
    3cebf870:	3ced9ed0 	.word	0x3ced9ed0
    3cebf874:	00000000 	.word	0x00000000

000000003cebf878 <DeviceInit>:
DeviceInit():
/os/oscope/rtos/uniproton/demos/rk3566_rz3w/apps/ivshmem/ivshmem_demo.c:236

int DeviceInit(struct IvshmemDeviceData *d)
{
    3cebf878:	f81b0ffe 	str	x30, [sp, #-80]!
    3cebf87c:	f9000fe0 	str	x0, [sp, #24]
/os/oscope/rtos/uniproton/demos/rk3566_rz3w/apps/ivshmem/ivshmem_demo.c:241
    unsigned long baseAddr, addr, size;
    int vndrCap, n, ret;
    U32 maxPeers;

    vndrCap = PciCapFind(d->bdf, PCI_CAP_VENDOR);
    3cebf880:	f9400fe0 	ldr	x0, [sp, #24]
    3cebf884:	79400000 	ldrh	w0, [x0]
    3cebf888:	52800121 	mov	w1, #0x9                   	// #9
    3cebf88c:	97ffff54 	bl	3cebf5dc <PciCapFind>
    3cebf890:	b9004fe0 	str	w0, [sp, #76]
/os/oscope/rtos/uniproton/demos/rk3566_rz3w/apps/ivshmem/ivshmem_demo.c:242
    if (vndrCap < 0) {
    3cebf894:	b9404fe0 	ldr	w0, [sp, #76]
    3cebf898:	7100001f 	cmp	w0, #0x0
    3cebf89c:	540000ea 	b.ge	3cebf8b8 <DeviceInit+0x40>  // b.tcont
/os/oscope/rtos/uniproton/demos/rk3566_rz3w/apps/ivshmem/ivshmem_demo.c:243
        PRT_Printf("IVSHMEM ERROR: missing vendor capability\n");
    3cebf8a0:	90000000 	adrp	x0, 3cebf000 <MmioRead16+0x14>
    3cebf8a4:	912f8000 	add	x0, x0, #0xbe0
    3cebf8a8:	f9400000 	ldr	x0, [x0]
    3cebf8ac:	94000371 	bl	3cec0670 <PRT_Printf>
/os/oscope/rtos/uniproton/demos/rk3566_rz3w/apps/ivshmem/ivshmem_demo.c:244
        return;
    3cebf8b0:	d503201f 	nop
    3cebf8b4:	140000c8 	b	3cebfbd4 <DeviceInit+0x35c>
/os/oscope/rtos/uniproton/demos/rk3566_rz3w/apps/ivshmem/ivshmem_demo.c:246
    }
    d->registers = (struct IvshmRegs *)BAR_BASE;
    3cebf8b8:	f9400fe0 	ldr	x0, [sp, #24]
    3cebf8bc:	d2bfe001 	mov	x1, #0xff000000            	// #4278190080
    3cebf8c0:	f9000401 	str	x1, [x0, #8]
/os/oscope/rtos/uniproton/demos/rk3566_rz3w/apps/ivshmem/ivshmem_demo.c:247
    PciCfgWrite(d->bdf, PCI_CFG_BAR, (unsigned long)d->registers, BYTES_NUMBER_FOUR);
    3cebf8c4:	f9400fe0 	ldr	x0, [sp, #24]
    3cebf8c8:	79400004 	ldrh	w4, [x0]
    3cebf8cc:	f9400fe0 	ldr	x0, [sp, #24]
    3cebf8d0:	f9400400 	ldr	x0, [x0, #8]
    3cebf8d4:	52800083 	mov	w3, #0x4                   	// #4
    3cebf8d8:	2a0003e2 	mov	w2, w0
    3cebf8dc:	52800201 	mov	w1, #0x10                  	// #16
    3cebf8e0:	2a0403e0 	mov	w0, w4
    3cebf8e4:	97fffee0 	bl	3cebf464 <PciCfgWrite>
/os/oscope/rtos/uniproton/demos/rk3566_rz3w/apps/ivshmem/ivshmem_demo.c:248
    PRT_Printf("IVSHMEM: bar0 is at %p\n", d->registers);
    3cebf8e8:	f9400fe0 	ldr	x0, [sp, #24]
    3cebf8ec:	f9400400 	ldr	x0, [x0, #8]
    3cebf8f0:	aa0003e1 	mov	x1, x0
    3cebf8f4:	90000000 	adrp	x0, 3cebf000 <MmioRead16+0x14>
    3cebf8f8:	912fa000 	add	x0, x0, #0xbe8
    3cebf8fc:	f9400000 	ldr	x0, [x0]
    3cebf900:	9400035c 	bl	3cec0670 <PRT_Printf>
/os/oscope/rtos/uniproton/demos/rk3566_rz3w/apps/ivshmem/ivshmem_demo.c:250

    d->msixTable = (U32 *)(BAR_BASE + PAGE_SIZE);
    3cebf904:	f9400fe0 	ldr	x0, [sp, #24]
    3cebf908:	d2820001 	mov	x1, #0x1000                	// #4096
    3cebf90c:	f2bfe001 	movk	x1, #0xff00, lsl #16
    3cebf910:	f9002401 	str	x1, [x0, #72]
/os/oscope/rtos/uniproton/demos/rk3566_rz3w/apps/ivshmem/ivshmem_demo.c:251
    PciCfgWrite(d->bdf, PCI_CFG_BAR + 4,
    3cebf914:	f9400fe0 	ldr	x0, [sp, #24]
    3cebf918:	79400004 	ldrh	w4, [x0]
/os/oscope/rtos/uniproton/demos/rk3566_rz3w/apps/ivshmem/ivshmem_demo.c:252
                (unsigned long)d->msixTable, BYTES_NUMBER_FOUR);
    3cebf91c:	f9400fe0 	ldr	x0, [sp, #24]
    3cebf920:	f9402400 	ldr	x0, [x0, #72]
/os/oscope/rtos/uniproton/demos/rk3566_rz3w/apps/ivshmem/ivshmem_demo.c:251
    PciCfgWrite(d->bdf, PCI_CFG_BAR + 4,
    3cebf924:	52800083 	mov	w3, #0x4                   	// #4
    3cebf928:	2a0003e2 	mov	w2, w0
    3cebf92c:	52800281 	mov	w1, #0x14                  	// #20
    3cebf930:	2a0403e0 	mov	w0, w4
    3cebf934:	97fffecc 	bl	3cebf464 <PciCfgWrite>
/os/oscope/rtos/uniproton/demos/rk3566_rz3w/apps/ivshmem/ivshmem_demo.c:253
    PRT_Printf("IVSHMEM: bar1 is at %p\n", d->msixTable);
    3cebf938:	f9400fe0 	ldr	x0, [sp, #24]
    3cebf93c:	f9402400 	ldr	x0, [x0, #72]
    3cebf940:	aa0003e1 	mov	x1, x0
    3cebf944:	90000000 	adrp	x0, 3cebf000 <MmioRead16+0x14>
    3cebf948:	912fc000 	add	x0, x0, #0xbf0
    3cebf94c:	f9400000 	ldr	x0, [x0]
    3cebf950:	94000348 	bl	3cec0670 <PRT_Printf>
/os/oscope/rtos/uniproton/demos/rk3566_rz3w/apps/ivshmem/ivshmem_demo.c:255

    PciCfgWrite(d->bdf, PCI_CFG_COMMAND,
    3cebf954:	f9400fe0 	ldr	x0, [sp, #24]
    3cebf958:	79400000 	ldrh	w0, [x0]
    3cebf95c:	52800043 	mov	w3, #0x2                   	// #2
    3cebf960:	528000c2 	mov	w2, #0x6                   	// #6
    3cebf964:	52800081 	mov	w1, #0x4                   	// #4
    3cebf968:	97fffebf 	bl	3cebf464 <PciCfgWrite>
/os/oscope/rtos/uniproton/demos/rk3566_rz3w/apps/ivshmem/ivshmem_demo.c:258
                (PCI_CMD_MEM | PCI_CMD_MASTER), BYTES_NUMBER_TWO);

    ret = MapRange((void *)BAR_BASE, 2 * PAGE_SIZE, MAP_UNCACHED);
    3cebf96c:	52800022 	mov	w2, #0x1                   	// #1
    3cebf970:	d2840001 	mov	x1, #0x2000                	// #8192
    3cebf974:	d2bfe000 	mov	x0, #0xff000000            	// #4278190080
    3cebf978:	97fffdde 	bl	3cebf0f0 <MapRange>
    3cebf97c:	b9004be0 	str	w0, [sp, #72]
/os/oscope/rtos/uniproton/demos/rk3566_rz3w/apps/ivshmem/ivshmem_demo.c:259
    if (ret != OS_OK) {
    3cebf980:	b9404be0 	ldr	w0, [sp, #72]
    3cebf984:	7100001f 	cmp	w0, #0x0
    3cebf988:	54000060 	b.eq	3cebf994 <DeviceInit+0x11c>  // b.none
/os/oscope/rtos/uniproton/demos/rk3566_rz3w/apps/ivshmem/ivshmem_demo.c:260
        return -1;
    3cebf98c:	12800000 	mov	w0, #0xffffffff            	// #-1
    3cebf990:	14000091 	b	3cebfbd4 <DeviceInit+0x35c>
/os/oscope/rtos/uniproton/demos/rk3566_rz3w/apps/ivshmem/ivshmem_demo.c:263
    }

    d->id = MmioRead32(&d->registers->id);
    3cebf994:	f9400fe0 	ldr	x0, [sp, #24]
    3cebf998:	f9400400 	ldr	x0, [x0, #8]
    3cebf99c:	97fffd9b 	bl	3cebf008 <MmioRead32>
    3cebf9a0:	2a0003e1 	mov	w1, w0
    3cebf9a4:	f9400fe0 	ldr	x0, [sp, #24]
    3cebf9a8:	b9005001 	str	w1, [x0, #80]
/os/oscope/rtos/uniproton/demos/rk3566_rz3w/apps/ivshmem/ivshmem_demo.c:264
    PRT_Printf("IVSHMEM: ID is %d\n", d->id);
    3cebf9ac:	f9400fe0 	ldr	x0, [sp, #24]
    3cebf9b0:	b9405000 	ldr	w0, [x0, #80]
    3cebf9b4:	2a0003e1 	mov	w1, w0
    3cebf9b8:	90000000 	adrp	x0, 3cebf000 <MmioRead16+0x14>
    3cebf9bc:	912fe000 	add	x0, x0, #0xbf8
    3cebf9c0:	f9400000 	ldr	x0, [x0]
    3cebf9c4:	9400032b 	bl	3cec0670 <PRT_Printf>
/os/oscope/rtos/uniproton/demos/rk3566_rz3w/apps/ivshmem/ivshmem_demo.c:267

    d->stateTableSize =
        PciCfgRead(d->bdf, vndrCap + IVSHMEM_CFG_STATE_TAB_SZ, BYTES_NUMBER_FOUR);
    3cebf9c8:	f9400fe0 	ldr	x0, [sp, #24]
    3cebf9cc:	79400003 	ldrh	w3, [x0]
    3cebf9d0:	b9404fe0 	ldr	w0, [sp, #76]
    3cebf9d4:	11001000 	add	w0, w0, #0x4
    3cebf9d8:	52800082 	mov	w2, #0x4                   	// #4
    3cebf9dc:	2a0003e1 	mov	w1, w0
    3cebf9e0:	2a0303e0 	mov	w0, w3
    3cebf9e4:	97fffe68 	bl	3cebf384 <PciCfgRead>
    3cebf9e8:	2a0003e1 	mov	w1, w0
/os/oscope/rtos/uniproton/demos/rk3566_rz3w/apps/ivshmem/ivshmem_demo.c:266
    d->stateTableSize =
    3cebf9ec:	f9400fe0 	ldr	x0, [sp, #24]
    3cebf9f0:	b9001801 	str	w1, [x0, #24]
/os/oscope/rtos/uniproton/demos/rk3566_rz3w/apps/ivshmem/ivshmem_demo.c:269
    d->rwSectionSize =
        PciCfgRead64(d->bdf, vndrCap + IVSHMEM_CFG_RW_SECTION_SZ);
    3cebf9f4:	f9400fe0 	ldr	x0, [sp, #24]
    3cebf9f8:	79400002 	ldrh	w2, [x0]
    3cebf9fc:	b9404fe0 	ldr	w0, [sp, #76]
    3cebfa00:	11002000 	add	w0, w0, #0x8
    3cebfa04:	2a0003e1 	mov	w1, w0
    3cebfa08:	2a0203e0 	mov	w0, w2
    3cebfa0c:	97fffe83 	bl	3cebf418 <PciCfgRead64>
    3cebfa10:	aa0003e1 	mov	x1, x0
/os/oscope/rtos/uniproton/demos/rk3566_rz3w/apps/ivshmem/ivshmem_demo.c:268
    d->rwSectionSize =
    3cebfa14:	f9400fe0 	ldr	x0, [sp, #24]
    3cebfa18:	f9001401 	str	x1, [x0, #40]
/os/oscope/rtos/uniproton/demos/rk3566_rz3w/apps/ivshmem/ivshmem_demo.c:271
    d->outSectionSize =
        PciCfgRead64(d->bdf, vndrCap + IVSHMEM_CFG_OUT_SECTION_SZ);
    3cebfa1c:	f9400fe0 	ldr	x0, [sp, #24]
    3cebfa20:	79400002 	ldrh	w2, [x0]
    3cebfa24:	b9404fe0 	ldr	w0, [sp, #76]
    3cebfa28:	11004000 	add	w0, w0, #0x10
    3cebfa2c:	2a0003e1 	mov	w1, w0
    3cebfa30:	2a0203e0 	mov	w0, w2
    3cebfa34:	97fffe79 	bl	3cebf418 <PciCfgRead64>
    3cebfa38:	aa0003e1 	mov	x1, x0
/os/oscope/rtos/uniproton/demos/rk3566_rz3w/apps/ivshmem/ivshmem_demo.c:270
    d->outSectionSize =
    3cebfa3c:	f9400fe0 	ldr	x0, [sp, #24]
    3cebfa40:	f9002001 	str	x1, [x0, #64]
/os/oscope/rtos/uniproton/demos/rk3566_rz3w/apps/ivshmem/ivshmem_demo.c:272
    baseAddr = PciCfgRead64(d->bdf, vndrCap + IVSHMEM_CFG_ADDRESS);
    3cebfa44:	f9400fe0 	ldr	x0, [sp, #24]
    3cebfa48:	79400002 	ldrh	w2, [x0]
    3cebfa4c:	b9404fe0 	ldr	w0, [sp, #76]
    3cebfa50:	11006000 	add	w0, w0, #0x18
    3cebfa54:	2a0003e1 	mov	w1, w0
    3cebfa58:	2a0203e0 	mov	w0, w2
    3cebfa5c:	97fffe6f 	bl	3cebf418 <PciCfgRead64>
    3cebfa60:	f90023e0 	str	x0, [sp, #64]
/os/oscope/rtos/uniproton/demos/rk3566_rz3w/apps/ivshmem/ivshmem_demo.c:274

    addr = baseAddr;
    3cebfa64:	f94023e0 	ldr	x0, [sp, #64]
    3cebfa68:	f9001fe0 	str	x0, [sp, #56]
/os/oscope/rtos/uniproton/demos/rk3566_rz3w/apps/ivshmem/ivshmem_demo.c:275
    d->stateTable = (U32 *)addr;
    3cebfa6c:	f9401fe1 	ldr	x1, [sp, #56]
    3cebfa70:	f9400fe0 	ldr	x0, [sp, #24]
    3cebfa74:	f9000801 	str	x1, [x0, #16]
/os/oscope/rtos/uniproton/demos/rk3566_rz3w/apps/ivshmem/ivshmem_demo.c:277

    addr += d->stateTableSize;
    3cebfa78:	f9400fe0 	ldr	x0, [sp, #24]
    3cebfa7c:	b9401800 	ldr	w0, [x0, #24]
    3cebfa80:	2a0003e0 	mov	w0, w0
    3cebfa84:	f9401fe1 	ldr	x1, [sp, #56]
    3cebfa88:	8b000020 	add	x0, x1, x0
    3cebfa8c:	f9001fe0 	str	x0, [sp, #56]
/os/oscope/rtos/uniproton/demos/rk3566_rz3w/apps/ivshmem/ivshmem_demo.c:278
    d->rwSection = (U32 *)addr;
    3cebfa90:	f9401fe1 	ldr	x1, [sp, #56]
    3cebfa94:	f9400fe0 	ldr	x0, [sp, #24]
    3cebfa98:	f9001001 	str	x1, [x0, #32]
/os/oscope/rtos/uniproton/demos/rk3566_rz3w/apps/ivshmem/ivshmem_demo.c:280

    addr += d->rwSectionSize;
    3cebfa9c:	f9400fe0 	ldr	x0, [sp, #24]
    3cebfaa0:	f9401400 	ldr	x0, [x0, #40]
    3cebfaa4:	f9401fe1 	ldr	x1, [sp, #56]
    3cebfaa8:	8b000020 	add	x0, x1, x0
    3cebfaac:	f9001fe0 	str	x0, [sp, #56]
/os/oscope/rtos/uniproton/demos/rk3566_rz3w/apps/ivshmem/ivshmem_demo.c:281
    d->inSections = (U32 *)addr;
    3cebfab0:	f9401fe1 	ldr	x1, [sp, #56]
    3cebfab4:	f9400fe0 	ldr	x0, [sp, #24]
    3cebfab8:	f9001801 	str	x1, [x0, #48]
/os/oscope/rtos/uniproton/demos/rk3566_rz3w/apps/ivshmem/ivshmem_demo.c:283

    addr += d->id * d->outSectionSize;
    3cebfabc:	f9400fe0 	ldr	x0, [sp, #24]
    3cebfac0:	b9405000 	ldr	w0, [x0, #80]
    3cebfac4:	2a0003e1 	mov	w1, w0
    3cebfac8:	f9400fe0 	ldr	x0, [sp, #24]
    3cebfacc:	f9402000 	ldr	x0, [x0, #64]
    3cebfad0:	9b007c20 	mul	x0, x1, x0
    3cebfad4:	f9401fe1 	ldr	x1, [sp, #56]
    3cebfad8:	8b000020 	add	x0, x1, x0
    3cebfadc:	f9001fe0 	str	x0, [sp, #56]
/os/oscope/rtos/uniproton/demos/rk3566_rz3w/apps/ivshmem/ivshmem_demo.c:284
    d->outSection = (U32 *)addr;
    3cebfae0:	f9401fe1 	ldr	x1, [sp, #56]
    3cebfae4:	f9400fe0 	ldr	x0, [sp, #24]
    3cebfae8:	f9001c01 	str	x1, [x0, #56]
/os/oscope/rtos/uniproton/demos/rk3566_rz3w/apps/ivshmem/ivshmem_demo.c:286

    PRT_Printf("IVSHMEM: state table is at %p\n", d->stateTable);
    3cebfaec:	f9400fe0 	ldr	x0, [sp, #24]
    3cebfaf0:	f9400800 	ldr	x0, [x0, #16]
    3cebfaf4:	aa0003e1 	mov	x1, x0
    3cebfaf8:	90000000 	adrp	x0, 3cebf000 <MmioRead16+0x14>
    3cebfafc:	91300000 	add	x0, x0, #0xc00
    3cebfb00:	f9400000 	ldr	x0, [x0]
    3cebfb04:	940002db 	bl	3cec0670 <PRT_Printf>
/os/oscope/rtos/uniproton/demos/rk3566_rz3w/apps/ivshmem/ivshmem_demo.c:287
    PRT_Printf("IVSHMEM: R/W section is at %p\n", d->rwSection);
    3cebfb08:	f9400fe0 	ldr	x0, [sp, #24]
    3cebfb0c:	f9401000 	ldr	x0, [x0, #32]
    3cebfb10:	aa0003e1 	mov	x1, x0
    3cebfb14:	90000000 	adrp	x0, 3cebf000 <MmioRead16+0x14>
    3cebfb18:	91302000 	add	x0, x0, #0xc08
    3cebfb1c:	f9400000 	ldr	x0, [x0]
    3cebfb20:	940002d4 	bl	3cec0670 <PRT_Printf>
/os/oscope/rtos/uniproton/demos/rk3566_rz3w/apps/ivshmem/ivshmem_demo.c:288
    PRT_Printf("IVSHMEM: input sections start at %p\n", d->inSections);
    3cebfb24:	f9400fe0 	ldr	x0, [sp, #24]
    3cebfb28:	f9401800 	ldr	x0, [x0, #48]
    3cebfb2c:	aa0003e1 	mov	x1, x0
    3cebfb30:	90000000 	adrp	x0, 3cebf000 <MmioRead16+0x14>
    3cebfb34:	91304000 	add	x0, x0, #0xc10
    3cebfb38:	f9400000 	ldr	x0, [x0]
    3cebfb3c:	940002cd 	bl	3cec0670 <PRT_Printf>
/os/oscope/rtos/uniproton/demos/rk3566_rz3w/apps/ivshmem/ivshmem_demo.c:289
    PRT_Printf("IVSHMEM: output section is at %p\n", d->outSection);
    3cebfb40:	f9400fe0 	ldr	x0, [sp, #24]
    3cebfb44:	f9401c00 	ldr	x0, [x0, #56]
    3cebfb48:	aa0003e1 	mov	x1, x0
    3cebfb4c:	90000000 	adrp	x0, 3cebf000 <MmioRead16+0x14>
    3cebfb50:	91306000 	add	x0, x0, #0xc18
    3cebfb54:	f9400000 	ldr	x0, [x0]
    3cebfb58:	940002c6 	bl	3cec0670 <PRT_Printf>
/os/oscope/rtos/uniproton/demos/rk3566_rz3w/apps/ivshmem/ivshmem_demo.c:291

    size = d->stateTableSize + d->rwSectionSize +
    3cebfb5c:	f9400fe0 	ldr	x0, [sp, #24]
    3cebfb60:	b9401800 	ldr	w0, [x0, #24]
    3cebfb64:	2a0003e1 	mov	w1, w0
    3cebfb68:	f9400fe0 	ldr	x0, [sp, #24]
    3cebfb6c:	f9401400 	ldr	x0, [x0, #40]
    3cebfb70:	8b000021 	add	x1, x1, x0
/os/oscope/rtos/uniproton/demos/rk3566_rz3w/apps/ivshmem/ivshmem_demo.c:292
        maxPeers * d->outSectionSize;
    3cebfb74:	b94037e2 	ldr	w2, [sp, #52]
    3cebfb78:	f9400fe0 	ldr	x0, [sp, #24]
    3cebfb7c:	f9402000 	ldr	x0, [x0, #64]
    3cebfb80:	9b007c40 	mul	x0, x2, x0
/os/oscope/rtos/uniproton/demos/rk3566_rz3w/apps/ivshmem/ivshmem_demo.c:291
    size = d->stateTableSize + d->rwSectionSize +
    3cebfb84:	8b000020 	add	x0, x1, x0
    3cebfb88:	f90017e0 	str	x0, [sp, #40]
/os/oscope/rtos/uniproton/demos/rk3566_rz3w/apps/ivshmem/ivshmem_demo.c:293
    ret = MapRange((void *)baseAddr, size, MAP_CACHED);
    3cebfb8c:	f94023e0 	ldr	x0, [sp, #64]
    3cebfb90:	52800002 	mov	w2, #0x0                   	// #0
    3cebfb94:	f94017e1 	ldr	x1, [sp, #40]
    3cebfb98:	97fffd56 	bl	3cebf0f0 <MapRange>
    3cebfb9c:	b9004be0 	str	w0, [sp, #72]
/os/oscope/rtos/uniproton/demos/rk3566_rz3w/apps/ivshmem/ivshmem_demo.c:294
    if (ret != OS_OK) {
    3cebfba0:	b9404be0 	ldr	w0, [sp, #72]
    3cebfba4:	7100001f 	cmp	w0, #0x0
    3cebfba8:	54000060 	b.eq	3cebfbb4 <DeviceInit+0x33c>  // b.none
/os/oscope/rtos/uniproton/demos/rk3566_rz3w/apps/ivshmem/ivshmem_demo.c:295
        return -1;
    3cebfbac:	12800000 	mov	w0, #0xffffffff            	// #-1
    3cebfbb0:	14000009 	b	3cebfbd4 <DeviceInit+0x35c>
/os/oscope/rtos/uniproton/demos/rk3566_rz3w/apps/ivshmem/ivshmem_demo.c:298
    }

    d->msixCap = PciCapFind(d->bdf, PCI_CAP_MSIX);
    3cebfbb4:	f9400fe0 	ldr	x0, [sp, #24]
    3cebfbb8:	79400000 	ldrh	w0, [x0]
    3cebfbbc:	52800221 	mov	w1, #0x11                  	// #17
    3cebfbc0:	97fffe87 	bl	3cebf5dc <PciCapFind>
    3cebfbc4:	2a0003e1 	mov	w1, w0
    3cebfbc8:	f9400fe0 	ldr	x0, [sp, #24]
    3cebfbcc:	b9005401 	str	w1, [x0, #84]
/os/oscope/rtos/uniproton/demos/rk3566_rz3w/apps/ivshmem/ivshmem_demo.c:300

    return OS_OK;
    3cebfbd0:	52800000 	mov	w0, #0x0                   	// #0
/os/oscope/rtos/uniproton/demos/rk3566_rz3w/apps/ivshmem/ivshmem_demo.c:301
}
    3cebfbd4:	f84507fe 	ldr	x30, [sp], #80
    3cebfbd8:	d65f03c0 	ret
    3cebfbdc:	d503201f 	nop
    3cebfbe0:	3ced9ef8 	.word	0x3ced9ef8
    3cebfbe4:	00000000 	.word	0x00000000
    3cebfbe8:	3ced9f28 	.word	0x3ced9f28
    3cebfbec:	00000000 	.word	0x00000000
    3cebfbf0:	3ced9f40 	.word	0x3ced9f40
    3cebfbf4:	00000000 	.word	0x00000000
    3cebfbf8:	3ced9f58 	.word	0x3ced9f58
    3cebfbfc:	00000000 	.word	0x00000000
    3cebfc00:	3ced9f70 	.word	0x3ced9f70
    3cebfc04:	00000000 	.word	0x00000000
    3cebfc08:	3ced9f90 	.word	0x3ced9f90
    3cebfc0c:	00000000 	.word	0x00000000
    3cebfc10:	3ced9fb0 	.word	0x3ced9fb0
    3cebfc14:	00000000 	.word	0x00000000
    3cebfc18:	3ced9fd8 	.word	0x3ced9fd8
    3cebfc1c:	00000000 	.word	0x00000000

000000003cebfc20 <ShmemHandler>:
ShmemHandler():
/os/oscope/rtos/uniproton/demos/rk3566_rz3w/apps/ivshmem/ivshmem_demo.c:304

void ShmemHandler(U32 intNum)
{
    3cebfc20:	f81e0ffe 	str	x30, [sp, #-32]!
    3cebfc24:	b9001fe0 	str	w0, [sp, #28]
/os/oscope/rtos/uniproton/demos/rk3566_rz3w/apps/ivshmem/ivshmem_demo.c:305
    irqCounter += 1;
    3cebfc28:	90000000 	adrp	x0, 3cebf000 <MmioRead16+0x14>
    3cebfc2c:	91324000 	add	x0, x0, #0xc90
    3cebfc30:	f9400000 	ldr	x0, [x0]
    3cebfc34:	b9400000 	ldr	w0, [x0]
    3cebfc38:	11000401 	add	w1, w0, #0x1
    3cebfc3c:	90000000 	adrp	x0, 3cebf000 <MmioRead16+0x14>
    3cebfc40:	91324000 	add	x0, x0, #0xc90
    3cebfc44:	f9400000 	ldr	x0, [x0]
    3cebfc48:	b9000001 	str	w1, [x0]
/os/oscope/rtos/uniproton/demos/rk3566_rz3w/apps/ivshmem/ivshmem_demo.c:306
    PRT_Printf("\n ShmemHandler: got interrupt %d (#%d)\n", intNum, irqCounter);
    3cebfc4c:	90000000 	adrp	x0, 3cebf000 <MmioRead16+0x14>
    3cebfc50:	91324000 	add	x0, x0, #0xc90
    3cebfc54:	f9400000 	ldr	x0, [x0]
    3cebfc58:	b9400000 	ldr	w0, [x0]
    3cebfc5c:	2a0003e2 	mov	w2, w0
    3cebfc60:	b9401fe1 	ldr	w1, [sp, #28]
    3cebfc64:	90000000 	adrp	x0, 3cebf000 <MmioRead16+0x14>
    3cebfc68:	91326000 	add	x0, x0, #0xc98
    3cebfc6c:	f9400000 	ldr	x0, [x0]
    3cebfc70:	94000280 	bl	3cec0670 <PRT_Printf>
/os/oscope/rtos/uniproton/demos/rk3566_rz3w/apps/ivshmem/ivshmem_demo.c:307
    PrintShmem(&dev);
    3cebfc74:	90000000 	adrp	x0, 3cebf000 <MmioRead16+0x14>
    3cebfc78:	91328000 	add	x0, x0, #0xca0
    3cebfc7c:	f9400000 	ldr	x0, [x0]
    3cebfc80:	97fffe7e 	bl	3cebf678 <PrintShmem>
/os/oscope/rtos/uniproton/demos/rk3566_rz3w/apps/ivshmem/ivshmem_demo.c:308
}
    3cebfc84:	d503201f 	nop
    3cebfc88:	f84207fe 	ldr	x30, [sp], #32
    3cebfc8c:	d65f03c0 	ret
    3cebfc90:	3cf85060 	.word	0x3cf85060
    3cebfc94:	00000000 	.word	0x00000000
    3cebfc98:	3ceda000 	.word	0x3ceda000
    3cebfc9c:	00000000 	.word	0x00000000
    3cebfca0:	3cf85008 	.word	0x3cf85008
    3cebfca4:	00000000 	.word	0x00000000

000000003cebfca8 <TestShmemStart>:
TestShmemStart():
/os/oscope/rtos/uniproton/demos/rk3566_rz3w/apps/ivshmem/ivshmem_demo.c:311

U32 TestShmemStart(void)
{
    3cebfca8:	f81e0ffe 	str	x30, [sp, #-32]!
/os/oscope/rtos/uniproton/demos/rk3566_rz3w/apps/ivshmem/ivshmem_demo.c:313
    U32 ret;
    ret = PRT_HwiSetAttr(TEST_SHMEME_INT, 10, OS_HWI_MODE_ENGROSS);
    3cebfcac:	52880002 	mov	w2, #0x4000                	// #16384
    3cebfcb0:	52800141 	mov	w1, #0xa                   	// #10
    3cebfcb4:	528010c0 	mov	w0, #0x86                  	// #134
    3cebfcb8:	9400556c 	bl	3ced5268 <PRT_HwiSetAttr>
    3cebfcbc:	b9001fe0 	str	w0, [sp, #28]
/os/oscope/rtos/uniproton/demos/rk3566_rz3w/apps/ivshmem/ivshmem_demo.c:314
    if (ret != OS_OK) {
    3cebfcc0:	b9401fe0 	ldr	w0, [sp, #28]
    3cebfcc4:	7100001f 	cmp	w0, #0x0
    3cebfcc8:	54000060 	b.eq	3cebfcd4 <TestShmemStart+0x2c>  // b.none
/os/oscope/rtos/uniproton/demos/rk3566_rz3w/apps/ivshmem/ivshmem_demo.c:315
        return ret;
    3cebfccc:	b9401fe0 	ldr	w0, [sp, #28]
    3cebfcd0:	14000016 	b	3cebfd28 <TestShmemStart+0x80>
/os/oscope/rtos/uniproton/demos/rk3566_rz3w/apps/ivshmem/ivshmem_demo.c:318
    }

    ret = PRT_HwiCreate(TEST_SHMEME_INT, (HwiProcFunc)ShmemHandler, 0);
    3cebfcd4:	d2800002 	mov	x2, #0x0                   	// #0
    3cebfcd8:	90000000 	adrp	x0, 3cebf000 <MmioRead16+0x14>
    3cebfcdc:	9134c000 	add	x0, x0, #0xd30
    3cebfce0:	f9400001 	ldr	x1, [x0]
    3cebfce4:	528010c0 	mov	w0, #0x86                  	// #134
    3cebfce8:	94005584 	bl	3ced52f8 <PRT_HwiCreate>
    3cebfcec:	b9001fe0 	str	w0, [sp, #28]
/os/oscope/rtos/uniproton/demos/rk3566_rz3w/apps/ivshmem/ivshmem_demo.c:319
    if (ret != OS_OK) {
    3cebfcf0:	b9401fe0 	ldr	w0, [sp, #28]
    3cebfcf4:	7100001f 	cmp	w0, #0x0
    3cebfcf8:	54000060 	b.eq	3cebfd04 <TestShmemStart+0x5c>  // b.none
/os/oscope/rtos/uniproton/demos/rk3566_rz3w/apps/ivshmem/ivshmem_demo.c:320
        return ret;
    3cebfcfc:	b9401fe0 	ldr	w0, [sp, #28]
    3cebfd00:	1400000a 	b	3cebfd28 <TestShmemStart+0x80>
/os/oscope/rtos/uniproton/demos/rk3566_rz3w/apps/ivshmem/ivshmem_demo.c:323
    }

    ret = PRT_HwiEnable(TEST_SHMEME_INT);
    3cebfd04:	528010c0 	mov	w0, #0x86                  	// #134
    3cebfd08:	94005477 	bl	3ced4ee4 <PRT_HwiEnable>
    3cebfd0c:	b9001fe0 	str	w0, [sp, #28]
/os/oscope/rtos/uniproton/demos/rk3566_rz3w/apps/ivshmem/ivshmem_demo.c:324
    if (ret != OS_OK) {
    3cebfd10:	b9401fe0 	ldr	w0, [sp, #28]
    3cebfd14:	7100001f 	cmp	w0, #0x0
    3cebfd18:	54000060 	b.eq	3cebfd24 <TestShmemStart+0x7c>  // b.none
/os/oscope/rtos/uniproton/demos/rk3566_rz3w/apps/ivshmem/ivshmem_demo.c:325
        return ret;
    3cebfd1c:	b9401fe0 	ldr	w0, [sp, #28]
    3cebfd20:	14000002 	b	3cebfd28 <TestShmemStart+0x80>
/os/oscope/rtos/uniproton/demos/rk3566_rz3w/apps/ivshmem/ivshmem_demo.c:327
    }
    return OS_OK;
    3cebfd24:	52800000 	mov	w0, #0x0                   	// #0
/os/oscope/rtos/uniproton/demos/rk3566_rz3w/apps/ivshmem/ivshmem_demo.c:328
    3cebfd28:	f84207fe 	ldr	x30, [sp], #32
    3cebfd2c:	d65f03c0 	ret
    3cebfd30:	3cebfc20 	.word	0x3cebfc20
    3cebfd34:	00000000 	.word	0x00000000

000000003cebfd38 <OsSicrInit>:
OsSicrInit():
/os/oscope/rtos/uniproton/demos/rk3566_rz3w/bsp/hwi_init.c:75
};

extern void OsGicdWaitCfgWork();

void OsSicrInit(void)
{
    3cebfd38:	d10083ff 	sub	sp, sp, #0x20
OsGetCoreID():
/os/oscope/rtos/uniproton/demos/rk3566_rz3w/./include/./hw/armv8/os_cpu_armv8.h:92
    3cebfd3c:	d53800a0 	mrs	x0, mpidr_el1
    3cebfd40:	f9000be0 	str	x0, [sp, #16]
/os/oscope/rtos/uniproton/demos/rk3566_rz3w/./include/./hw/armv8/os_cpu_armv8.h:93
    3cebfd44:	d5033fbf 	dmb	sy
/os/oscope/rtos/uniproton/demos/rk3566_rz3w/./include/./hw/armv8/os_cpu_armv8.h:97
    3cebfd48:	f9400be0 	ldr	x0, [sp, #16]
    3cebfd4c:	d348fc00 	lsr	x0, x0, #8
    3cebfd50:	2a0003e1 	mov	w1, w0
    3cebfd54:	f9400be0 	ldr	x0, [sp, #16]
    3cebfd58:	2a000020 	orr	w0, w1, w0
    3cebfd5c:	12001c00 	and	w0, w0, #0xff
OsSicrInit():
/os/oscope/rtos/uniproton/demos/rk3566_rz3w/bsp/hwi_init.c:80
    union SicrWaker sicrWaker;
    uintptr_t regAddr;
    U32 intId;

    regAddr = GICR_WAKER_ADDR + OsGetCoreID() * SICR_ADDR_OFFSET_PER_CORE;
    3cebfd60:	530f3800 	lsl	w0, w0, #17
    3cebfd64:	2a0003e1 	mov	w1, w0
    3cebfd68:	d2800280 	mov	x0, #0x14                  	// #20
    3cebfd6c:	f2bfa8c0 	movk	x0, #0xfd46, lsl #16
    3cebfd70:	8b000020 	add	x0, x1, x0
    3cebfd74:	f9000fe0 	str	x0, [sp, #24]
/os/oscope/rtos/uniproton/demos/rk3566_rz3w/bsp/hwi_init.c:81
    sicrWaker.value = GIC_REG_READ(regAddr);
    3cebfd78:	f9400fe0 	ldr	x0, [sp, #24]
    3cebfd7c:	b9400000 	ldr	w0, [x0]
    3cebfd80:	b9000be0 	str	w0, [sp, #8]
/os/oscope/rtos/uniproton/demos/rk3566_rz3w/bsp/hwi_init.c:82
    sicrWaker.bits.sleepReq = 0;
    3cebfd84:	b9400be0 	ldr	w0, [sp, #8]
    3cebfd88:	121e7800 	and	w0, w0, #0xfffffffd
    3cebfd8c:	b9000be0 	str	w0, [sp, #8]
/os/oscope/rtos/uniproton/demos/rk3566_rz3w/bsp/hwi_init.c:83
    GIC_REG_WRITE(regAddr, sicrWaker.value);
    3cebfd90:	f9400fe0 	ldr	x0, [sp, #24]
    3cebfd94:	b9400be1 	ldr	w1, [sp, #8]
    3cebfd98:	b9000001 	str	w1, [x0]
/os/oscope/rtos/uniproton/demos/rk3566_rz3w/bsp/hwi_init.c:84
    sicrWaker.value = GIC_REG_READ(regAddr);
    3cebfd9c:	f9400fe0 	ldr	x0, [sp, #24]
    3cebfda0:	b9400000 	ldr	w0, [x0]
    3cebfda4:	b9000be0 	str	w0, [sp, #8]
/os/oscope/rtos/uniproton/demos/rk3566_rz3w/bsp/hwi_init.c:85
    while (sicrWaker.bits.isSleep == 1) {
    3cebfda8:	14000004 	b	3cebfdb8 <OsSicrInit+0x80>
/os/oscope/rtos/uniproton/demos/rk3566_rz3w/bsp/hwi_init.c:86
        sicrWaker.value = GIC_REG_READ(regAddr);
    3cebfdac:	f9400fe0 	ldr	x0, [sp, #24]
    3cebfdb0:	b9400000 	ldr	w0, [x0]
    3cebfdb4:	b9000be0 	str	w0, [sp, #8]
/os/oscope/rtos/uniproton/demos/rk3566_rz3w/bsp/hwi_init.c:85
    while (sicrWaker.bits.isSleep == 1) {
    3cebfdb8:	b9400be0 	ldr	w0, [sp, #8]
    3cebfdbc:	121e0000 	and	w0, w0, #0x4
    3cebfdc0:	7100001f 	cmp	w0, #0x0
    3cebfdc4:	54ffff41 	b.ne	3cebfdac <OsSicrInit+0x74>  // b.any
/os/oscope/rtos/uniproton/demos/rk3566_rz3w/bsp/hwi_init.c:88
    }
}
    3cebfdc8:	d503201f 	nop
    3cebfdcc:	d503201f 	nop
    3cebfdd0:	910083ff 	add	sp, sp, #0x20
    3cebfdd4:	d65f03c0 	ret

000000003cebfdd8 <OsSicrSetIntGroup>:
OsSicrSetIntGroup():
/os/oscope/rtos/uniproton/demos/rk3566_rz3w/bsp/hwi_init.c:91

void OsSicrSetIntGroup(U32 coreId, U64 intId, enum SicGroupType groupId)
{
    3cebfdd8:	d10103ff 	sub	sp, sp, #0x40
    3cebfddc:	b9000fe0 	str	w0, [sp, #12]
    3cebfde0:	f90003e1 	str	x1, [sp]
    3cebfde4:	b9000be2 	str	w2, [sp, #8]
OsGetCoreID():
/os/oscope/rtos/uniproton/demos/rk3566_rz3w/./include/./hw/armv8/os_cpu_armv8.h:92
    3cebfde8:	d53800a0 	mrs	x0, mpidr_el1
    3cebfdec:	f90013e0 	str	x0, [sp, #32]
/os/oscope/rtos/uniproton/demos/rk3566_rz3w/./include/./hw/armv8/os_cpu_armv8.h:93
    3cebfdf0:	d5033fbf 	dmb	sy
/os/oscope/rtos/uniproton/demos/rk3566_rz3w/./include/./hw/armv8/os_cpu_armv8.h:97
    3cebfdf4:	f94013e0 	ldr	x0, [sp, #32]
    3cebfdf8:	d348fc00 	lsr	x0, x0, #8
    3cebfdfc:	2a0003e1 	mov	w1, w0
    3cebfe00:	f94013e0 	ldr	x0, [sp, #32]
    3cebfe04:	2a000020 	orr	w0, w1, w0
    3cebfe08:	12001c00 	and	w0, w0, #0xff
OsSicrSetIntGroup():
/os/oscope/rtos/uniproton/demos/rk3566_rz3w/bsp/hwi_init.c:97
    uintptr_t group0RegAddr;
    uintptr_t modRegAddr;
    U32 group0RegTmp;
    U32 modRegTmp;
    
    group0RegAddr = GICR_IGROUPR0_ADDR + OsGetCoreID() * SICR_ADDR_OFFSET_PER_CORE;
    3cebfe0c:	530f3800 	lsl	w0, w0, #17
    3cebfe10:	2a0003e1 	mov	w1, w0
    3cebfe14:	d2801000 	mov	x0, #0x80                  	// #128
    3cebfe18:	f2bfa8e0 	movk	x0, #0xfd47, lsl #16
    3cebfe1c:	8b000020 	add	x0, x1, x0
    3cebfe20:	f9001be0 	str	x0, [sp, #48]
/os/oscope/rtos/uniproton/demos/rk3566_rz3w/bsp/hwi_init.c:98
    group0RegTmp = GIC_REG_READ(group0RegAddr);
    3cebfe24:	f9401be0 	ldr	x0, [sp, #48]
    3cebfe28:	b9400000 	ldr	w0, [x0]
    3cebfe2c:	b9003fe0 	str	w0, [sp, #60]
/os/oscope/rtos/uniproton/demos/rk3566_rz3w/bsp/hwi_init.c:100
    
    if ((groupId == SIC_GROUP_G0S) || (groupId == SIC_GROUP_G1S)) {
    3cebfe30:	b9400be0 	ldr	w0, [sp, #8]
    3cebfe34:	7100001f 	cmp	w0, #0x0
    3cebfe38:	54000080 	b.eq	3cebfe48 <OsSicrSetIntGroup+0x70>  // b.none
/os/oscope/rtos/uniproton/demos/rk3566_rz3w/bsp/hwi_init.c:100 (discriminator 1)
    3cebfe3c:	b9400be0 	ldr	w0, [sp, #8]
    3cebfe40:	7100081f 	cmp	w0, #0x2
    3cebfe44:	54000141 	b.ne	3cebfe6c <OsSicrSetIntGroup+0x94>  // b.any
/os/oscope/rtos/uniproton/demos/rk3566_rz3w/bsp/hwi_init.c:101
        group0RegTmp &= ~(0x1U << intId);
    3cebfe48:	f94003e0 	ldr	x0, [sp]
    3cebfe4c:	2a0003e1 	mov	w1, w0
    3cebfe50:	52800020 	mov	w0, #0x1                   	// #1
    3cebfe54:	1ac12000 	lsl	w0, w0, w1
    3cebfe58:	2a2003e0 	mvn	w0, w0
    3cebfe5c:	b9403fe1 	ldr	w1, [sp, #60]
    3cebfe60:	0a000020 	and	w0, w1, w0
    3cebfe64:	b9003fe0 	str	w0, [sp, #60]
    3cebfe68:	14000008 	b	3cebfe88 <OsSicrSetIntGroup+0xb0>
/os/oscope/rtos/uniproton/demos/rk3566_rz3w/bsp/hwi_init.c:103
    } else {
        group0RegTmp |= (0x1U << intId);
    3cebfe6c:	f94003e0 	ldr	x0, [sp]
    3cebfe70:	2a0003e1 	mov	w1, w0
    3cebfe74:	52800020 	mov	w0, #0x1                   	// #1
    3cebfe78:	1ac12000 	lsl	w0, w0, w1
    3cebfe7c:	b9403fe1 	ldr	w1, [sp, #60]
    3cebfe80:	2a000020 	orr	w0, w1, w0
    3cebfe84:	b9003fe0 	str	w0, [sp, #60]
/os/oscope/rtos/uniproton/demos/rk3566_rz3w/bsp/hwi_init.c:105
    }
    GIC_REG_WRITE(group0RegAddr, group0RegTmp);
    3cebfe88:	f9401be0 	ldr	x0, [sp, #48]
    3cebfe8c:	b9403fe1 	ldr	w1, [sp, #60]
    3cebfe90:	b9000001 	str	w1, [x0]
OsGetCoreID():
/os/oscope/rtos/uniproton/demos/rk3566_rz3w/./include/./hw/armv8/os_cpu_armv8.h:92
    3cebfe94:	d53800a0 	mrs	x0, mpidr_el1
    3cebfe98:	f9000fe0 	str	x0, [sp, #24]
/os/oscope/rtos/uniproton/demos/rk3566_rz3w/./include/./hw/armv8/os_cpu_armv8.h:93
    3cebfe9c:	d5033fbf 	dmb	sy
/os/oscope/rtos/uniproton/demos/rk3566_rz3w/./include/./hw/armv8/os_cpu_armv8.h:97
    3cebfea0:	f9400fe0 	ldr	x0, [sp, #24]
    3cebfea4:	d348fc00 	lsr	x0, x0, #8
    3cebfea8:	2a0003e1 	mov	w1, w0
    3cebfeac:	f9400fe0 	ldr	x0, [sp, #24]
    3cebfeb0:	2a000020 	orr	w0, w1, w0
    3cebfeb4:	12001c00 	and	w0, w0, #0xff
OsSicrSetIntGroup():
/os/oscope/rtos/uniproton/demos/rk3566_rz3w/bsp/hwi_init.c:107
    
    modRegAddr = GICR_IGRPMODR0_ADDR + OsGetCoreID() * SICR_ADDR_OFFSET_PER_CORE;
    3cebfeb8:	530f3800 	lsl	w0, w0, #17
    3cebfebc:	2a0003e1 	mov	w1, w0
    3cebfec0:	d281a000 	mov	x0, #0xd00                 	// #3328
    3cebfec4:	f2bfa8e0 	movk	x0, #0xfd47, lsl #16
    3cebfec8:	8b000020 	add	x0, x1, x0
    3cebfecc:	f90017e0 	str	x0, [sp, #40]
/os/oscope/rtos/uniproton/demos/rk3566_rz3w/bsp/hwi_init.c:108
    modRegTmp = GIC_REG_READ(modRegAddr);
    3cebfed0:	f94017e0 	ldr	x0, [sp, #40]
    3cebfed4:	b9400000 	ldr	w0, [x0]
    3cebfed8:	b9003be0 	str	w0, [sp, #56]
/os/oscope/rtos/uniproton/demos/rk3566_rz3w/bsp/hwi_init.c:110
    
    if (groupId == SIC_GROUP_G1S) {
    3cebfedc:	b9400be0 	ldr	w0, [sp, #8]
    3cebfee0:	7100081f 	cmp	w0, #0x2
    3cebfee4:	54000121 	b.ne	3cebff08 <OsSicrSetIntGroup+0x130>  // b.any
/os/oscope/rtos/uniproton/demos/rk3566_rz3w/bsp/hwi_init.c:111
        modRegTmp |= (0x1U << intId);
    3cebfee8:	f94003e0 	ldr	x0, [sp]
    3cebfeec:	2a0003e1 	mov	w1, w0
    3cebfef0:	52800020 	mov	w0, #0x1                   	// #1
    3cebfef4:	1ac12000 	lsl	w0, w0, w1
    3cebfef8:	b9403be1 	ldr	w1, [sp, #56]
    3cebfefc:	2a000020 	orr	w0, w1, w0
    3cebff00:	b9003be0 	str	w0, [sp, #56]
    3cebff04:	14000009 	b	3cebff28 <OsSicrSetIntGroup+0x150>
/os/oscope/rtos/uniproton/demos/rk3566_rz3w/bsp/hwi_init.c:113
    } else {
        modRegTmp &= ~(0x1U << intId);
    3cebff08:	f94003e0 	ldr	x0, [sp]
    3cebff0c:	2a0003e1 	mov	w1, w0
    3cebff10:	52800020 	mov	w0, #0x1                   	// #1
    3cebff14:	1ac12000 	lsl	w0, w0, w1
    3cebff18:	2a2003e0 	mvn	w0, w0
    3cebff1c:	b9403be1 	ldr	w1, [sp, #56]
    3cebff20:	0a000020 	and	w0, w1, w0
    3cebff24:	b9003be0 	str	w0, [sp, #56]
/os/oscope/rtos/uniproton/demos/rk3566_rz3w/bsp/hwi_init.c:115
    }
    GIC_REG_WRITE(modRegAddr, modRegTmp);
    3cebff28:	f94017e0 	ldr	x0, [sp, #40]
    3cebff2c:	b9403be1 	ldr	w1, [sp, #56]
    3cebff30:	b9000001 	str	w1, [x0]
/os/oscope/rtos/uniproton/demos/rk3566_rz3w/bsp/hwi_init.c:116
}
    3cebff34:	d503201f 	nop
    3cebff38:	910103ff 	add	sp, sp, #0x40
    3cebff3c:	d65f03c0 	ret

000000003cebff40 <OsSiccEnableSre>:
OsSiccEnableSre():
/os/oscope/rtos/uniproton/demos/rk3566_rz3w/bsp/hwi_init.c:119

U32 OsSiccEnableSre(void)
{
    3cebff40:	d10043ff 	sub	sp, sp, #0x10
/os/oscope/rtos/uniproton/demos/rk3566_rz3w/bsp/hwi_init.c:122
    volatile union HwiIccSreElx iccSre;
    
    OS_EMBED_ASM("MRS %0, " REG_ALIAS(ICC_SRE_EL1) " \n" : "=&r"(iccSre));
    3cebff44:	d538cca0 	mrs	x0, icc_sre_el1
    3cebff48:	f90007e0 	str	x0, [sp, #8]
/os/oscope/rtos/uniproton/demos/rk3566_rz3w/bsp/hwi_init.c:123
    iccSre.bits.prt = 1;
    3cebff4c:	f94007e0 	ldr	x0, [sp, #8]
    3cebff50:	b2400000 	orr	x0, x0, #0x1
    3cebff54:	f90007e0 	str	x0, [sp, #8]
/os/oscope/rtos/uniproton/demos/rk3566_rz3w/bsp/hwi_init.c:124
    iccSre.bits.dfb = 1;
    3cebff58:	f94007e0 	ldr	x0, [sp, #8]
    3cebff5c:	b27f0000 	orr	x0, x0, #0x2
    3cebff60:	f90007e0 	str	x0, [sp, #8]
/os/oscope/rtos/uniproton/demos/rk3566_rz3w/bsp/hwi_init.c:125
    iccSre.bits.dib = 1;
    3cebff64:	f94007e0 	ldr	x0, [sp, #8]
    3cebff68:	b27e0000 	orr	x0, x0, #0x4
    3cebff6c:	f90007e0 	str	x0, [sp, #8]
/os/oscope/rtos/uniproton/demos/rk3566_rz3w/bsp/hwi_init.c:126
    OS_EMBED_ASM("MSR " REG_ALIAS(ICC_SRE_EL1) ", %0 \n" : : "r"(iccSre));
    3cebff70:	f94007e0 	ldr	x0, [sp, #8]
    3cebff74:	d518cca0 	msr	icc_sre_el1, x0
/os/oscope/rtos/uniproton/demos/rk3566_rz3w/bsp/hwi_init.c:127
    OS_EMBED_ASM("DSB SY");
    3cebff78:	d5033f9f 	dsb	sy
/os/oscope/rtos/uniproton/demos/rk3566_rz3w/bsp/hwi_init.c:128
    OS_EMBED_ASM("ISB");
    3cebff7c:	d5033fdf 	isb
/os/oscope/rtos/uniproton/demos/rk3566_rz3w/bsp/hwi_init.c:130

    OS_EMBED_ASM("MRS %0, " REG_ALIAS(ICC_SRE_EL1) " \n" : "=&r"(iccSre.value));
    3cebff80:	d538cca0 	mrs	x0, icc_sre_el1
    3cebff84:	f90007e0 	str	x0, [sp, #8]
/os/oscope/rtos/uniproton/demos/rk3566_rz3w/bsp/hwi_init.c:132
    
    if (iccSre.bits.prt != 1) {
    3cebff88:	f94007e0 	ldr	x0, [sp, #8]
    3cebff8c:	d3400000 	ubfx	x0, x0, #0, #1
    3cebff90:	12001c00 	and	w0, w0, #0xff
    3cebff94:	7100041f 	cmp	w0, #0x1
    3cebff98:	54000060 	b.eq	3cebffa4 <OsSiccEnableSre+0x64>  // b.none
/os/oscope/rtos/uniproton/demos/rk3566_rz3w/bsp/hwi_init.c:133
        return OS_FAIL;
    3cebff9c:	52800020 	mov	w0, #0x1                   	// #1
    3cebffa0:	14000002 	b	3cebffa8 <OsSiccEnableSre+0x68>
/os/oscope/rtos/uniproton/demos/rk3566_rz3w/bsp/hwi_init.c:136
    }
    
    return OS_OK;
    3cebffa4:	52800000 	mov	w0, #0x0                   	// #0
/os/oscope/rtos/uniproton/demos/rk3566_rz3w/bsp/hwi_init.c:137
}
    3cebffa8:	910043ff 	add	sp, sp, #0x10
    3cebffac:	d65f03c0 	ret

000000003cebffb0 <OsSiccCfgIntPreempt>:
OsSiccCfgIntPreempt():
/os/oscope/rtos/uniproton/demos/rk3566_rz3w/bsp/hwi_init.c:140

void OsSiccCfgIntPreempt(void)
{
    3cebffb0:	d10043ff 	sub	sp, sp, #0x10
/os/oscope/rtos/uniproton/demos/rk3566_rz3w/bsp/hwi_init.c:141
    U64 tmp = 0;
    3cebffb4:	f90007ff 	str	xzr, [sp, #8]
/os/oscope/rtos/uniproton/demos/rk3566_rz3w/bsp/hwi_init.c:143
    
    OS_EMBED_ASM("MRS %0, " REG_ALIAS(ICC_BPR1_EL1) " \n" : "=&r"(tmp) : : "memory");
    3cebffb8:	d538cc60 	mrs	x0, icc_bpr1_el1
    3cebffbc:	f90007e0 	str	x0, [sp, #8]
/os/oscope/rtos/uniproton/demos/rk3566_rz3w/bsp/hwi_init.c:144
    tmp &= ~(GROUP_MAX_BPR);
    3cebffc0:	f94007e0 	ldr	x0, [sp, #8]
    3cebffc4:	927d7000 	and	x0, x0, #0xfffffff8
    3cebffc8:	f90007e0 	str	x0, [sp, #8]
/os/oscope/rtos/uniproton/demos/rk3566_rz3w/bsp/hwi_init.c:146
    tmp |= GROUP1_BP;
    OS_EMBED_ASM("MSR " REG_ALIAS(ICC_BPR1_EL1) ", %0 \n" : : "r"(tmp) : "memory");
    3cebffcc:	f94007e0 	ldr	x0, [sp, #8]
    3cebffd0:	d518cc60 	msr	icc_bpr1_el1, x0
/os/oscope/rtos/uniproton/demos/rk3566_rz3w/bsp/hwi_init.c:147
}
    3cebffd4:	d503201f 	nop
    3cebffd8:	910043ff 	add	sp, sp, #0x10
    3cebffdc:	d65f03c0 	ret

000000003cebffe0 <OsSiccEnableGroup1>:
OsSiccEnableGroup1():
/os/oscope/rtos/uniproton/demos/rk3566_rz3w/bsp/hwi_init.c:150

void OsSiccEnableGroup1(void)
{
    3cebffe0:	d10043ff 	sub	sp, sp, #0x10
/os/oscope/rtos/uniproton/demos/rk3566_rz3w/bsp/hwi_init.c:151
    U64 tmp = 0;
    3cebffe4:	f90007ff 	str	xzr, [sp, #8]
/os/oscope/rtos/uniproton/demos/rk3566_rz3w/bsp/hwi_init.c:153
    
    OS_EMBED_ASM("MRS %0, " REG_ALIAS(ICC_IGRPEN1_EL1) " \n" : "=&r"(tmp) : : "memory");
    3cebffe8:	d538cce0 	mrs	x0, icc_igrpen1_el1
    3cebffec:	f90007e0 	str	x0, [sp, #8]
/os/oscope/rtos/uniproton/demos/rk3566_rz3w/bsp/hwi_init.c:154
    tmp |= 0x01U;
    3cebfff0:	f94007e0 	ldr	x0, [sp, #8]
    3cebfff4:	b2400000 	orr	x0, x0, #0x1
    3cebfff8:	f90007e0 	str	x0, [sp, #8]
/os/oscope/rtos/uniproton/demos/rk3566_rz3w/bsp/hwi_init.c:155
    OS_EMBED_ASM("MSR " REG_ALIAS(ICC_IGRPEN1_EL1) ", %0 \n" : : "r"(tmp) : "memory");
    3cebfffc:	f94007e0 	ldr	x0, [sp, #8]
    3cec0000:	d518cce0 	msr	icc_igrpen1_el1, x0
/os/oscope/rtos/uniproton/demos/rk3566_rz3w/bsp/hwi_init.c:156
}
    3cec0004:	d503201f 	nop
    3cec0008:	910043ff 	add	sp, sp, #0x10
    3cec000c:	d65f03c0 	ret

000000003cec0010 <OsSiccCfgPriorityMask>:
OsSiccCfgPriorityMask():
/os/oscope/rtos/uniproton/demos/rk3566_rz3w/bsp/hwi_init.c:159

void OsSiccCfgPriorityMask(void)
{
    3cec0010:	d10043ff 	sub	sp, sp, #0x10
/os/oscope/rtos/uniproton/demos/rk3566_rz3w/bsp/hwi_init.c:160
    U64 tmp = 0;
    3cec0014:	f90007ff 	str	xzr, [sp, #8]
/os/oscope/rtos/uniproton/demos/rk3566_rz3w/bsp/hwi_init.c:162
    
    OS_EMBED_ASM("MRS %0, " REG_ALIAS(ICC_PMR_EL1) " \n" : "=&r"(tmp) : : "memory");
    3cec0018:	d5384600 	mrs	x0, icc_pmr_el1
    3cec001c:	f90007e0 	str	x0, [sp, #8]
/os/oscope/rtos/uniproton/demos/rk3566_rz3w/bsp/hwi_init.c:163
    tmp |= PRIO_MASK_LEVEL;
    3cec0020:	f94007e0 	ldr	x0, [sp, #8]
    3cec0024:	b2401c00 	orr	x0, x0, #0xff
    3cec0028:	f90007e0 	str	x0, [sp, #8]
/os/oscope/rtos/uniproton/demos/rk3566_rz3w/bsp/hwi_init.c:164
    OS_EMBED_ASM("MSR " REG_ALIAS(ICC_PMR_EL1) ", %0 \n" : : "r"(tmp) : "memory");
    3cec002c:	f94007e0 	ldr	x0, [sp, #8]
    3cec0030:	d5184600 	msr	icc_pmr_el1, x0
/os/oscope/rtos/uniproton/demos/rk3566_rz3w/bsp/hwi_init.c:165
}
    3cec0034:	d503201f 	nop
    3cec0038:	910043ff 	add	sp, sp, #0x10
    3cec003c:	d65f03c0 	ret

000000003cec0040 <OsSiccInit>:
OsSiccInit():
/os/oscope/rtos/uniproton/demos/rk3566_rz3w/bsp/hwi_init.c:168

U32 OsSiccInit(void)
{
    3cec0040:	f81e0ffe 	str	x30, [sp, #-32]!
/os/oscope/rtos/uniproton/demos/rk3566_rz3w/bsp/hwi_init.c:171
    U32 ret;

    ret = OsSiccEnableSre();
    3cec0044:	97ffffbf 	bl	3cebff40 <OsSiccEnableSre>
    3cec0048:	b9001fe0 	str	w0, [sp, #28]
/os/oscope/rtos/uniproton/demos/rk3566_rz3w/bsp/hwi_init.c:172
    if (ret != OS_OK) {
    3cec004c:	b9401fe0 	ldr	w0, [sp, #28]
    3cec0050:	7100001f 	cmp	w0, #0x0
    3cec0054:	54000060 	b.eq	3cec0060 <OsSiccInit+0x20>  // b.none
/os/oscope/rtos/uniproton/demos/rk3566_rz3w/bsp/hwi_init.c:173
        return ret;
    3cec0058:	b9401fe0 	ldr	w0, [sp, #28]
    3cec005c:	14000005 	b	3cec0070 <OsSiccInit+0x30>
/os/oscope/rtos/uniproton/demos/rk3566_rz3w/bsp/hwi_init.c:176
    }

    OsSiccCfgIntPreempt();
    3cec0060:	97ffffd4 	bl	3cebffb0 <OsSiccCfgIntPreempt>
/os/oscope/rtos/uniproton/demos/rk3566_rz3w/bsp/hwi_init.c:178

    OsSiccEnableGroup1();
    3cec0064:	97ffffdf 	bl	3cebffe0 <OsSiccEnableGroup1>
/os/oscope/rtos/uniproton/demos/rk3566_rz3w/bsp/hwi_init.c:180

    OsSiccCfgPriorityMask();
    3cec0068:	97ffffea 	bl	3cec0010 <OsSiccCfgPriorityMask>
/os/oscope/rtos/uniproton/demos/rk3566_rz3w/bsp/hwi_init.c:182

    return OS_OK;
    3cec006c:	52800000 	mov	w0, #0x0                   	// #0
/os/oscope/rtos/uniproton/demos/rk3566_rz3w/bsp/hwi_init.c:183
}
    3cec0070:	f84207fe 	ldr	x30, [sp], #32
    3cec0074:	d65f03c0 	ret

000000003cec0078 <OsSicdSetIntGroup>:
OsSicdSetIntGroup():
/os/oscope/rtos/uniproton/demos/rk3566_rz3w/bsp/hwi_init.c:186

void OsSicdSetIntGroup(U32 intId, enum SicGroupType groupId)
{
    3cec0078:	d10103ff 	sub	sp, sp, #0x40
    3cec007c:	b9000fe0 	str	w0, [sp, #12]
    3cec0080:	b9000be1 	str	w1, [sp, #8]
/os/oscope/rtos/uniproton/demos/rk3566_rz3w/bsp/hwi_init.c:194
    U32 group0RegTmp;
    U32 modRegTmp;
    U32 sicdM;
    U32 bitOffset;
    
    sicdM = (intId - MIN_GIC_SPI_NUM) / SICD_IGROUP_INT_NUM;
    3cec0084:	b9400fe0 	ldr	w0, [sp, #12]
    3cec0088:	51008000 	sub	w0, w0, #0x20
    3cec008c:	53057c00 	lsr	w0, w0, #5
    3cec0090:	b90037e0 	str	w0, [sp, #52]
/os/oscope/rtos/uniproton/demos/rk3566_rz3w/bsp/hwi_init.c:195
    group0RegAddr = GICD_IGROUPN_ADDR + (SICD_REG_SIZE * sicdM);
    3cec0094:	b94037e0 	ldr	w0, [sp, #52]
    3cec0098:	531e7400 	lsl	w0, w0, #2
    3cec009c:	2a0003e1 	mov	w1, w0
    3cec00a0:	d2801000 	mov	x0, #0x80                  	// #128
    3cec00a4:	f2bfa800 	movk	x0, #0xfd40, lsl #16
    3cec00a8:	8b000020 	add	x0, x1, x0
    3cec00ac:	f90017e0 	str	x0, [sp, #40]
/os/oscope/rtos/uniproton/demos/rk3566_rz3w/bsp/hwi_init.c:196
    modRegAddr = GICD_IGRPMODRN_ADDR + (SICD_REG_SIZE * sicdM);
    3cec00b0:	b94037e0 	ldr	w0, [sp, #52]
    3cec00b4:	531e7400 	lsl	w0, w0, #2
    3cec00b8:	2a0003e1 	mov	w1, w0
    3cec00bc:	d281a000 	mov	x0, #0xd00                 	// #3328
    3cec00c0:	f2bfa800 	movk	x0, #0xfd40, lsl #16
    3cec00c4:	8b000020 	add	x0, x1, x0
    3cec00c8:	f90013e0 	str	x0, [sp, #32]
/os/oscope/rtos/uniproton/demos/rk3566_rz3w/bsp/hwi_init.c:197
    bitOffset = (intId - MIN_GIC_SPI_NUM) % SICD_IGROUP_INT_NUM;
    3cec00cc:	b9400fe0 	ldr	w0, [sp, #12]
    3cec00d0:	12001000 	and	w0, w0, #0x1f
    3cec00d4:	b9001fe0 	str	w0, [sp, #28]
/os/oscope/rtos/uniproton/demos/rk3566_rz3w/bsp/hwi_init.c:199
    
    group0RegTmp = GIC_REG_READ(group0RegAddr);
    3cec00d8:	f94017e0 	ldr	x0, [sp, #40]
    3cec00dc:	b9400000 	ldr	w0, [x0]
    3cec00e0:	b9003fe0 	str	w0, [sp, #60]
/os/oscope/rtos/uniproton/demos/rk3566_rz3w/bsp/hwi_init.c:200
    if ((groupId == SIC_GROUP_G0S) || (groupId == SIC_GROUP_G1S)) {
    3cec00e4:	b9400be0 	ldr	w0, [sp, #8]
    3cec00e8:	7100001f 	cmp	w0, #0x0
    3cec00ec:	54000080 	b.eq	3cec00fc <OsSicdSetIntGroup+0x84>  // b.none
/os/oscope/rtos/uniproton/demos/rk3566_rz3w/bsp/hwi_init.c:200 (discriminator 1)
    3cec00f0:	b9400be0 	ldr	w0, [sp, #8]
    3cec00f4:	7100081f 	cmp	w0, #0x2
    3cec00f8:	54000121 	b.ne	3cec011c <OsSicdSetIntGroup+0xa4>  // b.any
/os/oscope/rtos/uniproton/demos/rk3566_rz3w/bsp/hwi_init.c:201
        group0RegTmp &= ~(0x1U << bitOffset);
    3cec00fc:	b9401fe0 	ldr	w0, [sp, #28]
    3cec0100:	52800021 	mov	w1, #0x1                   	// #1
    3cec0104:	1ac02020 	lsl	w0, w1, w0
    3cec0108:	2a2003e0 	mvn	w0, w0
    3cec010c:	b9403fe1 	ldr	w1, [sp, #60]
    3cec0110:	0a000020 	and	w0, w1, w0
    3cec0114:	b9003fe0 	str	w0, [sp, #60]
    3cec0118:	14000007 	b	3cec0134 <OsSicdSetIntGroup+0xbc>
/os/oscope/rtos/uniproton/demos/rk3566_rz3w/bsp/hwi_init.c:203
    } else {
        group0RegTmp |= (0x1U << bitOffset);
    3cec011c:	b9401fe0 	ldr	w0, [sp, #28]
    3cec0120:	52800021 	mov	w1, #0x1                   	// #1
    3cec0124:	1ac02020 	lsl	w0, w1, w0
    3cec0128:	b9403fe1 	ldr	w1, [sp, #60]
    3cec012c:	2a000020 	orr	w0, w1, w0
    3cec0130:	b9003fe0 	str	w0, [sp, #60]
/os/oscope/rtos/uniproton/demos/rk3566_rz3w/bsp/hwi_init.c:205
    }
    GIC_REG_WRITE(group0RegAddr, group0RegTmp);
    3cec0134:	f94017e0 	ldr	x0, [sp, #40]
    3cec0138:	b9403fe1 	ldr	w1, [sp, #60]
    3cec013c:	b9000001 	str	w1, [x0]
/os/oscope/rtos/uniproton/demos/rk3566_rz3w/bsp/hwi_init.c:207
    
    modRegTmp = GIC_REG_READ(modRegAddr); 
    3cec0140:	f94013e0 	ldr	x0, [sp, #32]
    3cec0144:	b9400000 	ldr	w0, [x0]
    3cec0148:	b9003be0 	str	w0, [sp, #56]
/os/oscope/rtos/uniproton/demos/rk3566_rz3w/bsp/hwi_init.c:208
    if (groupId == SIC_GROUP_G1S) {
    3cec014c:	b9400be0 	ldr	w0, [sp, #8]
    3cec0150:	7100081f 	cmp	w0, #0x2
    3cec0154:	54000101 	b.ne	3cec0174 <OsSicdSetIntGroup+0xfc>  // b.any
/os/oscope/rtos/uniproton/demos/rk3566_rz3w/bsp/hwi_init.c:209
        modRegTmp |= (0x1U << bitOffset);
    3cec0158:	b9401fe0 	ldr	w0, [sp, #28]
    3cec015c:	52800021 	mov	w1, #0x1                   	// #1
    3cec0160:	1ac02020 	lsl	w0, w1, w0
    3cec0164:	b9403be1 	ldr	w1, [sp, #56]
    3cec0168:	2a000020 	orr	w0, w1, w0
    3cec016c:	b9003be0 	str	w0, [sp, #56]
    3cec0170:	14000008 	b	3cec0190 <OsSicdSetIntGroup+0x118>
/os/oscope/rtos/uniproton/demos/rk3566_rz3w/bsp/hwi_init.c:211
    } else {
        modRegTmp &= ~(0x1U << bitOffset);
    3cec0174:	b9401fe0 	ldr	w0, [sp, #28]
    3cec0178:	52800021 	mov	w1, #0x1                   	// #1
    3cec017c:	1ac02020 	lsl	w0, w1, w0
    3cec0180:	2a2003e0 	mvn	w0, w0
    3cec0184:	b9403be1 	ldr	w1, [sp, #56]
    3cec0188:	0a000020 	and	w0, w1, w0
    3cec018c:	b9003be0 	str	w0, [sp, #56]
/os/oscope/rtos/uniproton/demos/rk3566_rz3w/bsp/hwi_init.c:213
    }
    GIC_REG_WRITE(modRegAddr, modRegTmp);
    3cec0190:	f94013e0 	ldr	x0, [sp, #32]
    3cec0194:	b9403be1 	ldr	w1, [sp, #56]
    3cec0198:	b9000001 	str	w1, [x0]
/os/oscope/rtos/uniproton/demos/rk3566_rz3w/bsp/hwi_init.c:214
}
    3cec019c:	d503201f 	nop
    3cec01a0:	910103ff 	add	sp, sp, #0x40
    3cec01a4:	d65f03c0 	ret

000000003cec01a8 <OsSicSetGroup>:
OsSicSetGroup():
/os/oscope/rtos/uniproton/demos/rk3566_rz3w/bsp/hwi_init.c:217

void OsSicSetGroup(U32 intId, enum SicGroupType groupId)
{
    3cec01a8:	f81d0ffe 	str	x30, [sp, #-48]!
    3cec01ac:	b9001fe0 	str	w0, [sp, #28]
    3cec01b0:	b9001be1 	str	w1, [sp, #24]
OsGetCoreID():
/os/oscope/rtos/uniproton/demos/rk3566_rz3w/./include/./hw/armv8/os_cpu_armv8.h:92
    3cec01b4:	d53800a0 	mrs	x0, mpidr_el1
    3cec01b8:	f90013e0 	str	x0, [sp, #32]
/os/oscope/rtos/uniproton/demos/rk3566_rz3w/./include/./hw/armv8/os_cpu_armv8.h:93
    3cec01bc:	d5033fbf 	dmb	sy
/os/oscope/rtos/uniproton/demos/rk3566_rz3w/./include/./hw/armv8/os_cpu_armv8.h:97
    3cec01c0:	f94013e0 	ldr	x0, [sp, #32]
    3cec01c4:	d348fc00 	lsr	x0, x0, #8
    3cec01c8:	2a0003e1 	mov	w1, w0
    3cec01cc:	f94013e0 	ldr	x0, [sp, #32]
    3cec01d0:	2a000020 	orr	w0, w1, w0
    3cec01d4:	12001c00 	and	w0, w0, #0xff
OsSicSetGroup():
/os/oscope/rtos/uniproton/demos/rk3566_rz3w/bsp/hwi_init.c:218
    U32 coreId = OsGetCoreID();
    3cec01d8:	b9002fe0 	str	w0, [sp, #44]
/os/oscope/rtos/uniproton/demos/rk3566_rz3w/bsp/hwi_init.c:221
    enum GicIntState state;
    
    if (intId < MIN_GIC_SPI_NUM) {
    3cec01dc:	b9401fe0 	ldr	w0, [sp, #28]
    3cec01e0:	71007c1f 	cmp	w0, #0x1f
    3cec01e4:	54000288 	b.hi	3cec0234 <OsSicSetGroup+0x8c>  // b.pmore
/os/oscope/rtos/uniproton/demos/rk3566_rz3w/bsp/hwi_init.c:222
        state = OsGicrGetIntState(coreId, intId);
    3cec01e8:	b9401fe1 	ldr	w1, [sp, #28]
    3cec01ec:	b9402fe0 	ldr	w0, [sp, #44]
    3cec01f0:	94005176 	bl	3ced47c8 <OsGicrGetIntState>
    3cec01f4:	b9002be0 	str	w0, [sp, #40]
/os/oscope/rtos/uniproton/demos/rk3566_rz3w/bsp/hwi_init.c:223
        OsGicrDisableInt(coreId, intId);
    3cec01f8:	b9401fe1 	ldr	w1, [sp, #28]
    3cec01fc:	b9402fe0 	ldr	w0, [sp, #44]
    3cec0200:	940051ac 	bl	3ced48b0 <OsGicrDisableInt>
/os/oscope/rtos/uniproton/demos/rk3566_rz3w/bsp/hwi_init.c:224
        OsSicrSetIntGroup(coreId, intId, groupId);
    3cec0204:	b9401fe0 	ldr	w0, [sp, #28]
    3cec0208:	b9401be2 	ldr	w2, [sp, #24]
    3cec020c:	aa0003e1 	mov	x1, x0
    3cec0210:	b9402fe0 	ldr	w0, [sp, #44]
    3cec0214:	97fffef1 	bl	3cebfdd8 <OsSicrSetIntGroup>
/os/oscope/rtos/uniproton/demos/rk3566_rz3w/bsp/hwi_init.c:225
        if (state == GIC_ENABLE) {
    3cec0218:	b9402be0 	ldr	w0, [sp, #40]
    3cec021c:	7100041f 	cmp	w0, #0x1
    3cec0220:	54000241 	b.ne	3cec0268 <OsSicSetGroup+0xc0>  // b.any
/os/oscope/rtos/uniproton/demos/rk3566_rz3w/bsp/hwi_init.c:226
            OsGicrEnableInt(coreId, intId);
    3cec0224:	b9401fe1 	ldr	w1, [sp, #28]
    3cec0228:	b9402fe0 	ldr	w0, [sp, #44]
    3cec022c:	94005185 	bl	3ced4840 <OsGicrEnableInt>
/os/oscope/rtos/uniproton/demos/rk3566_rz3w/bsp/hwi_init.c:236
        OsSicdSetIntGroup(intId, groupId);
        if (state == GIC_ENABLE) {
            OsGicdEnableInt(intId);
        }
    }
}
    3cec0230:	1400000e 	b	3cec0268 <OsSicSetGroup+0xc0>
/os/oscope/rtos/uniproton/demos/rk3566_rz3w/bsp/hwi_init.c:229
        state = OsGicdGetIntState(intId);
    3cec0234:	b9401fe0 	ldr	w0, [sp, #28]
    3cec0238:	94005056 	bl	3ced4390 <OsGicdGetIntState>
    3cec023c:	b9002be0 	str	w0, [sp, #40]
/os/oscope/rtos/uniproton/demos/rk3566_rz3w/bsp/hwi_init.c:230
        OsGicdDisableInt(intId);
    3cec0240:	b9401fe0 	ldr	w0, [sp, #28]
    3cec0244:	9400506d 	bl	3ced43f8 <OsGicdDisableInt>
/os/oscope/rtos/uniproton/demos/rk3566_rz3w/bsp/hwi_init.c:231
        OsSicdSetIntGroup(intId, groupId);
    3cec0248:	b9401be1 	ldr	w1, [sp, #24]
    3cec024c:	b9401fe0 	ldr	w0, [sp, #28]
    3cec0250:	97ffff8a 	bl	3cec0078 <OsSicdSetIntGroup>
/os/oscope/rtos/uniproton/demos/rk3566_rz3w/bsp/hwi_init.c:232
        if (state == GIC_ENABLE) {
    3cec0254:	b9402be0 	ldr	w0, [sp, #40]
    3cec0258:	7100041f 	cmp	w0, #0x1
    3cec025c:	54000061 	b.ne	3cec0268 <OsSicSetGroup+0xc0>  // b.any
/os/oscope/rtos/uniproton/demos/rk3566_rz3w/bsp/hwi_init.c:233
            OsGicdEnableInt(intId);
    3cec0260:	b9401fe0 	ldr	w0, [sp, #28]
    3cec0264:	94005059 	bl	3ced43c8 <OsGicdEnableInt>
/os/oscope/rtos/uniproton/demos/rk3566_rz3w/bsp/hwi_init.c:236
}
    3cec0268:	d503201f 	nop
    3cec026c:	f84307fe 	ldr	x30, [sp], #48
    3cec0270:	d65f03c0 	ret

000000003cec0274 <OsSicInitLocal>:
OsSicInitLocal():
/os/oscope/rtos/uniproton/demos/rk3566_rz3w/bsp/hwi_init.c:239

U32 OsSicInitLocal(void)
{
    3cec0274:	f81e0ffe 	str	x30, [sp, #-32]!
/os/oscope/rtos/uniproton/demos/rk3566_rz3w/bsp/hwi_init.c:243
    U32 ret;
    U32 intId;

    OsSicrInit();
    3cec0278:	97fffeb0 	bl	3cebfd38 <OsSicrInit>
/os/oscope/rtos/uniproton/demos/rk3566_rz3w/bsp/hwi_init.c:245

    ret = OsSiccInit();
    3cec027c:	97ffff71 	bl	3cec0040 <OsSiccInit>
    3cec0280:	b9001be0 	str	w0, [sp, #24]
/os/oscope/rtos/uniproton/demos/rk3566_rz3w/bsp/hwi_init.c:246
    if (ret != OS_OK) {
    3cec0284:	b9401be0 	ldr	w0, [sp, #24]
    3cec0288:	7100001f 	cmp	w0, #0x0
    3cec028c:	54000060 	b.eq	3cec0298 <OsSicInitLocal+0x24>  // b.none
/os/oscope/rtos/uniproton/demos/rk3566_rz3w/bsp/hwi_init.c:247
        return ret;
    3cec0290:	b9401be0 	ldr	w0, [sp, #24]
    3cec0294:	1400000d 	b	3cec02c8 <OsSicInitLocal+0x54>
/os/oscope/rtos/uniproton/demos/rk3566_rz3w/bsp/hwi_init.c:250
    }

    for (intId = 0; intId < MIN_GIC_SPI_NUM; ++intId) {
    3cec0298:	b9001fff 	str	wzr, [sp, #28]
    3cec029c:	14000007 	b	3cec02b8 <OsSicInitLocal+0x44>
/os/oscope/rtos/uniproton/demos/rk3566_rz3w/bsp/hwi_init.c:251 (discriminator 3)
        OsSicSetGroup(intId, SIC_GROUP_G1NS);
    3cec02a0:	52800021 	mov	w1, #0x1                   	// #1
    3cec02a4:	b9401fe0 	ldr	w0, [sp, #28]
    3cec02a8:	97ffffc0 	bl	3cec01a8 <OsSicSetGroup>
/os/oscope/rtos/uniproton/demos/rk3566_rz3w/bsp/hwi_init.c:250 (discriminator 3)
    for (intId = 0; intId < MIN_GIC_SPI_NUM; ++intId) {
    3cec02ac:	b9401fe0 	ldr	w0, [sp, #28]
    3cec02b0:	11000400 	add	w0, w0, #0x1
    3cec02b4:	b9001fe0 	str	w0, [sp, #28]
/os/oscope/rtos/uniproton/demos/rk3566_rz3w/bsp/hwi_init.c:250 (discriminator 1)
    3cec02b8:	b9401fe0 	ldr	w0, [sp, #28]
    3cec02bc:	71007c1f 	cmp	w0, #0x1f
    3cec02c0:	54ffff09 	b.ls	3cec02a0 <OsSicInitLocal+0x2c>  // b.plast
/os/oscope/rtos/uniproton/demos/rk3566_rz3w/bsp/hwi_init.c:254
    }

    return OS_OK;
    3cec02c4:	52800000 	mov	w0, #0x0                   	// #0
/os/oscope/rtos/uniproton/demos/rk3566_rz3w/bsp/hwi_init.c:255
}
    3cec02c8:	f84207fe 	ldr	x30, [sp], #32
    3cec02cc:	d65f03c0 	ret

000000003cec02d0 <OsSicdInit>:
OsSicdInit():
/os/oscope/rtos/uniproton/demos/rk3566_rz3w/bsp/hwi_init.c:258

void OsSicdInit(void)
{
    3cec02d0:	f81e0ffe 	str	x30, [sp, #-32]!
/os/oscope/rtos/uniproton/demos/rk3566_rz3w/bsp/hwi_init.c:261
    union SicdCtrl sicdCtrl;
    
    sicdCtrl.value = GIC_REG_READ(GICD_CTLR_S_ADDR);
    3cec02d4:	d2bfa800 	mov	x0, #0xfd400000            	// #4248829952
    3cec02d8:	b9400000 	ldr	w0, [x0]
    3cec02dc:	b9001be0 	str	w0, [sp, #24]
/os/oscope/rtos/uniproton/demos/rk3566_rz3w/bsp/hwi_init.c:263
    
    if ((sicdCtrl.bits.enG0S == 1) || (sicdCtrl.bits.enG1Ns == 1) || (sicdCtrl.bits.enG1S == 1)) {
    3cec02e0:	b9401be0 	ldr	w0, [sp, #24]
    3cec02e4:	12000000 	and	w0, w0, #0x1
    3cec02e8:	7100001f 	cmp	w0, #0x0
    3cec02ec:	54000341 	b.ne	3cec0354 <OsSicdInit+0x84>  // b.any
/os/oscope/rtos/uniproton/demos/rk3566_rz3w/bsp/hwi_init.c:263 (discriminator 1)
    3cec02f0:	b9401be0 	ldr	w0, [sp, #24]
    3cec02f4:	121f0000 	and	w0, w0, #0x2
    3cec02f8:	7100001f 	cmp	w0, #0x0
    3cec02fc:	540002c1 	b.ne	3cec0354 <OsSicdInit+0x84>  // b.any
/os/oscope/rtos/uniproton/demos/rk3566_rz3w/bsp/hwi_init.c:263 (discriminator 2)
    3cec0300:	b9401be0 	ldr	w0, [sp, #24]
    3cec0304:	121e0000 	and	w0, w0, #0x4
    3cec0308:	7100001f 	cmp	w0, #0x0
    3cec030c:	54000241 	b.ne	3cec0354 <OsSicdInit+0x84>  // b.any
/os/oscope/rtos/uniproton/demos/rk3566_rz3w/bsp/hwi_init.c:267
        return;
    }
    
    sicdCtrl.bits.ds = 0;
    3cec0310:	b9401be0 	ldr	w0, [sp, #24]
    3cec0314:	12197800 	and	w0, w0, #0xffffffbf
    3cec0318:	b9001be0 	str	w0, [sp, #24]
/os/oscope/rtos/uniproton/demos/rk3566_rz3w/bsp/hwi_init.c:268
    sicdCtrl.bits.areNs = 1;
    3cec031c:	b9401be0 	ldr	w0, [sp, #24]
    3cec0320:	321b0000 	orr	w0, w0, #0x20
    3cec0324:	b9001be0 	str	w0, [sp, #24]
/os/oscope/rtos/uniproton/demos/rk3566_rz3w/bsp/hwi_init.c:269
    sicdCtrl.bits.areS = 1;
    3cec0328:	b9401be0 	ldr	w0, [sp, #24]
    3cec032c:	321c0000 	orr	w0, w0, #0x10
    3cec0330:	b9001be0 	str	w0, [sp, #24]
/os/oscope/rtos/uniproton/demos/rk3566_rz3w/bsp/hwi_init.c:270
    sicdCtrl.bits.enG1Ns = 1;
    3cec0334:	b9401be0 	ldr	w0, [sp, #24]
    3cec0338:	321f0000 	orr	w0, w0, #0x2
    3cec033c:	b9001be0 	str	w0, [sp, #24]
/os/oscope/rtos/uniproton/demos/rk3566_rz3w/bsp/hwi_init.c:271
    GIC_REG_WRITE(GICD_CTLR_S_ADDR, sicdCtrl.value);
    3cec0340:	d2bfa800 	mov	x0, #0xfd400000            	// #4248829952
    3cec0344:	b9401be1 	ldr	w1, [sp, #24]
    3cec0348:	b9000001 	str	w1, [x0]
/os/oscope/rtos/uniproton/demos/rk3566_rz3w/bsp/hwi_init.c:273
    
    OsGicdWaitCfgWork();
    3cec034c:	94005009 	bl	3ced4370 <OsGicdWaitCfgWork>
    3cec0350:	14000002 	b	3cec0358 <OsSicdInit+0x88>
/os/oscope/rtos/uniproton/demos/rk3566_rz3w/bsp/hwi_init.c:264
        return;
    3cec0354:	d503201f 	nop
/os/oscope/rtos/uniproton/demos/rk3566_rz3w/bsp/hwi_init.c:274
}
    3cec0358:	f84207fe 	ldr	x30, [sp], #32
    3cec035c:	d65f03c0 	ret

000000003cec0360 <OsSicInitGlobal>:
OsSicInitGlobal():
/os/oscope/rtos/uniproton/demos/rk3566_rz3w/bsp/hwi_init.c:277

void OsSicInitGlobal(void)
{
    3cec0360:	f81e0ffe 	str	x30, [sp, #-32]!
/os/oscope/rtos/uniproton/demos/rk3566_rz3w/bsp/hwi_init.c:280
    U32 intId;
    
    OsSicdInit();
    3cec0364:	97ffffdb 	bl	3cec02d0 <OsSicdInit>
/os/oscope/rtos/uniproton/demos/rk3566_rz3w/bsp/hwi_init.c:282
    
    for (intId = MIN_GIC_SPI_NUM; intId < MAX_INT_NUM; ++intId) {
    3cec0368:	52800400 	mov	w0, #0x20                  	// #32
    3cec036c:	b9001fe0 	str	w0, [sp, #28]
    3cec0370:	14000007 	b	3cec038c <OsSicInitGlobal+0x2c>
/os/oscope/rtos/uniproton/demos/rk3566_rz3w/bsp/hwi_init.c:283 (discriminator 3)
        OsSicSetGroup(intId, SIC_GROUP_G1NS);
    3cec0374:	52800021 	mov	w1, #0x1                   	// #1
    3cec0378:	b9401fe0 	ldr	w0, [sp, #28]
    3cec037c:	97ffff8b 	bl	3cec01a8 <OsSicSetGroup>
/os/oscope/rtos/uniproton/demos/rk3566_rz3w/bsp/hwi_init.c:282 (discriminator 3)
    for (intId = MIN_GIC_SPI_NUM; intId < MAX_INT_NUM; ++intId) {
    3cec0380:	b9401fe0 	ldr	w0, [sp, #28]
    3cec0384:	11000400 	add	w0, w0, #0x1
    3cec0388:	b9001fe0 	str	w0, [sp, #28]
/os/oscope/rtos/uniproton/demos/rk3566_rz3w/bsp/hwi_init.c:282 (discriminator 1)
    3cec038c:	b9401fe0 	ldr	w0, [sp, #28]
    3cec0390:	7106081f 	cmp	w0, #0x182
    3cec0394:	54ffff09 	b.ls	3cec0374 <OsSicInitGlobal+0x14>  // b.plast
/os/oscope/rtos/uniproton/demos/rk3566_rz3w/bsp/hwi_init.c:285
    }
}
    3cec0398:	d503201f 	nop
    3cec039c:	d503201f 	nop
    3cec03a0:	f84207fe 	ldr	x30, [sp], #32
    3cec03a4:	d65f03c0 	ret

000000003cec03a8 <OsHwiInit>:
OsHwiInit():
/os/oscope/rtos/uniproton/demos/rk3566_rz3w/bsp/hwi_init.c:325
    val |= GICC_CTLR_ENABLE_MASK;
    GIC_REG_WRITE(val, GICC_CTLR);
}
#endif
U32 OsHwiInit(void)
{
    3cec03a8:	f81e0ffe 	str	x30, [sp, #-32]!
/os/oscope/rtos/uniproton/demos/rk3566_rz3w/bsp/hwi_init.c:329
#if (OS_GIC_VER == 3)
    U32 ret;

    ret = OsSicInitLocal();
    3cec03ac:	97ffffb2 	bl	3cec0274 <OsSicInitLocal>
    3cec03b0:	b9001fe0 	str	w0, [sp, #28]
/os/oscope/rtos/uniproton/demos/rk3566_rz3w/bsp/hwi_init.c:330
    if (ret != OS_OK) {
    3cec03b4:	b9401fe0 	ldr	w0, [sp, #28]
    3cec03b8:	7100001f 	cmp	w0, #0x0
    3cec03bc:	54000060 	b.eq	3cec03c8 <OsHwiInit+0x20>  // b.none
/os/oscope/rtos/uniproton/demos/rk3566_rz3w/bsp/hwi_init.c:331
        return ret;
    3cec03c0:	b9401fe0 	ldr	w0, [sp, #28]
    3cec03c4:	1400000f 	b	3cec0400 <OsHwiInit+0x58>
OsGetCoreID():
/os/oscope/rtos/uniproton/demos/rk3566_rz3w/./include/./hw/armv8/os_cpu_armv8.h:92
    3cec03c8:	d53800a0 	mrs	x0, mpidr_el1
    3cec03cc:	f9000be0 	str	x0, [sp, #16]
/os/oscope/rtos/uniproton/demos/rk3566_rz3w/./include/./hw/armv8/os_cpu_armv8.h:93
    3cec03d0:	d5033fbf 	dmb	sy
/os/oscope/rtos/uniproton/demos/rk3566_rz3w/./include/./hw/armv8/os_cpu_armv8.h:97
    3cec03d4:	f9400be0 	ldr	x0, [sp, #16]
    3cec03d8:	d348fc00 	lsr	x0, x0, #8
    3cec03dc:	2a0003e1 	mov	w1, w0
    3cec03e0:	f9400be0 	ldr	x0, [sp, #16]
    3cec03e4:	2a000020 	orr	w0, w1, w0
    3cec03e8:	12001c00 	and	w0, w0, #0xff
PRT_GetCoreID():
/os/oscope/rtos/uniproton/demos/rk3566_rz3w/./include/./hw/armv8/os_cpu_armv8.h:105
    3cec03ec:	d503201f 	nop
OsHwiInit():
/os/oscope/rtos/uniproton/demos/rk3566_rz3w/bsp/hwi_init.c:334
    }

    if(PRT_GetCoreID() == 0) {
    3cec03f0:	7100001f 	cmp	w0, #0x0
    3cec03f4:	54000041 	b.ne	3cec03fc <OsHwiInit+0x54>  // b.any
/os/oscope/rtos/uniproton/demos/rk3566_rz3w/bsp/hwi_init.c:335
        OsSicInitGlobal();
    3cec03f8:	97ffffda 	bl	3cec0360 <OsSicInitGlobal>
/os/oscope/rtos/uniproton/demos/rk3566_rz3w/bsp/hwi_init.c:340
    }
#elif (OS_GIC_VER == 2)
    OsGicInitCpuInterface();
#endif
    return OS_OK;
    3cec03fc:	52800000 	mov	w0, #0x0                   	// #0
/os/oscope/rtos/uniproton/demos/rk3566_rz3w/bsp/hwi_init.c:341
}
    3cec0400:	f84207fe 	ldr	x30, [sp], #32
    3cec0404:	d65f03c0 	ret

000000003cec0408 <uart_recv>:
uart_recv():
/os/oscope/rtos/uniproton/demos/rk3566_rz3w/bsp/print.c:12

typedef U32 (*PrintFunc)(const char *format, va_list vaList);
#define OS_MAX_SHOW_LEN 0x200

U32 uart_recv(U8 *value)
{
    3cec0408:	f81d0ffe 	str	x30, [sp, #-48]!
    3cec040c:	f9000fe0 	str	x0, [sp, #24]
/os/oscope/rtos/uniproton/demos/rk3566_rz3w/bsp/print.c:13
    S32 ret = 0;
    3cec0410:	b9002fff 	str	wzr, [sp, #44]
/os/oscope/rtos/uniproton/demos/rk3566_rz3w/bsp/print.c:14
    ret = serial_getc();
    3cec0414:	94000503 	bl	3cec1820 <serial_getc>
    3cec0418:	b9002fe0 	str	w0, [sp, #44]
/os/oscope/rtos/uniproton/demos/rk3566_rz3w/bsp/print.c:15
    if (ret == -EAGAIN) {
    3cec041c:	b9402fe0 	ldr	w0, [sp, #44]
    3cec0420:	31002c1f 	cmn	w0, #0xb
    3cec0424:	54000061 	b.ne	3cec0430 <uart_recv+0x28>  // b.any
/os/oscope/rtos/uniproton/demos/rk3566_rz3w/bsp/print.c:16
        return EAGAIN;
    3cec0428:	52800160 	mov	w0, #0xb                   	// #11
    3cec042c:	14000006 	b	3cec0444 <uart_recv+0x3c>
/os/oscope/rtos/uniproton/demos/rk3566_rz3w/bsp/print.c:19
    }

    *value = (U8)ret;
    3cec0430:	b9402fe0 	ldr	w0, [sp, #44]
    3cec0434:	12001c01 	and	w1, w0, #0xff
    3cec0438:	f9400fe0 	ldr	x0, [sp, #24]
    3cec043c:	39000001 	strb	w1, [x0]
/os/oscope/rtos/uniproton/demos/rk3566_rz3w/bsp/print.c:21

    return 0;
    3cec0440:	52800000 	mov	w0, #0x0                   	// #0
/os/oscope/rtos/uniproton/demos/rk3566_rz3w/bsp/print.c:22
}
    3cec0444:	f84307fe 	ldr	x30, [sp], #48
    3cec0448:	d65f03c0 	ret

000000003cec044c <uart_recv_hwi>:
uart_recv_hwi():
/os/oscope/rtos/uniproton/demos/rk3566_rz3w/bsp/print.c:25

void uart_recv_hwi(void) 
{
    3cec044c:	f81e0ffe 	str	x30, [sp, #-32]!
/os/oscope/rtos/uniproton/demos/rk3566_rz3w/bsp/print.c:27
    U8 data;
    while (uart_recv(&data) == 0) {
    3cec0450:	d503201f 	nop
/os/oscope/rtos/uniproton/demos/rk3566_rz3w/bsp/print.c:27 (discriminator 1)
    3cec0454:	91007fe0 	add	x0, sp, #0x1f
    3cec0458:	97ffffec 	bl	3cec0408 <uart_recv>
    3cec045c:	7100001f 	cmp	w0, #0x0
    3cec0460:	54ffffa0 	b.eq	3cec0454 <uart_recv_hwi+0x8>  // b.none
/os/oscope/rtos/uniproton/demos/rk3566_rz3w/bsp/print.c:30
        /*Do not printf in this task*/
    }
}
    3cec0464:	d503201f 	nop
    3cec0468:	d503201f 	nop
    3cec046c:	f84207fe 	ldr	x30, [sp], #32
    3cec0470:	d65f03c0 	ret
    3cec0474:	00000000 	udf	#0

000000003cec0478 <PRT_UartInit>:
PRT_UartInit():
/os/oscope/rtos/uniproton/demos/rk3566_rz3w/bsp/print.c:33

U32 PRT_UartInit(void)
{
    3cec0478:	f81e0ffe 	str	x30, [sp, #-32]!
/os/oscope/rtos/uniproton/demos/rk3566_rz3w/bsp/print.c:35
    U32 ret;
    (void)PRT_HwiDelete(CCORE_SYS_UART4_INTID);
    3cec047c:	52800b80 	mov	w0, #0x5c                  	// #92
    3cec0480:	940053c4 	bl	3ced5390 <PRT_HwiDelete>
/os/oscope/rtos/uniproton/demos/rk3566_rz3w/bsp/print.c:37

    ret = PRT_HwiSetAttr(CCORE_SYS_UART4_INTID, 12, OS_HWI_MODE_ENGROSS);
    3cec0484:	52880002 	mov	w2, #0x4000                	// #16384
    3cec0488:	52800181 	mov	w1, #0xc                   	// #12
    3cec048c:	52800b80 	mov	w0, #0x5c                  	// #92
    3cec0490:	94005376 	bl	3ced5268 <PRT_HwiSetAttr>
    3cec0494:	b9001fe0 	str	w0, [sp, #28]
/os/oscope/rtos/uniproton/demos/rk3566_rz3w/bsp/print.c:38
    if (ret != OS_OK) {
    3cec0498:	b9401fe0 	ldr	w0, [sp, #28]
    3cec049c:	7100001f 	cmp	w0, #0x0
    3cec04a0:	54000060 	b.eq	3cec04ac <PRT_UartInit+0x34>  // b.none
/os/oscope/rtos/uniproton/demos/rk3566_rz3w/bsp/print.c:39
        return ret;
    3cec04a4:	b9401fe0 	ldr	w0, [sp, #28]
    3cec04a8:	1400001d 	b	3cec051c <PRT_UartInit+0xa4>
/os/oscope/rtos/uniproton/demos/rk3566_rz3w/bsp/print.c:42
    }

    ret = PRT_HwiCreate(CCORE_SYS_UART4_INTID, (HwiProcFunc)uart_recv_hwi, CCORE_SYS_UART4_INTID);
    3cec04ac:	d2800b82 	mov	x2, #0x5c                  	// #92
    3cec04b0:	90000000 	adrp	x0, 3cec0000 <OsSiccEnableGroup1+0x20>
    3cec04b4:	9114a000 	add	x0, x0, #0x528
    3cec04b8:	f9400001 	ldr	x1, [x0]
    3cec04bc:	52800b80 	mov	w0, #0x5c                  	// #92
    3cec04c0:	9400538e 	bl	3ced52f8 <PRT_HwiCreate>
    3cec04c4:	b9001fe0 	str	w0, [sp, #28]
/os/oscope/rtos/uniproton/demos/rk3566_rz3w/bsp/print.c:43
    if (ret != OS_OK) {
    3cec04c8:	b9401fe0 	ldr	w0, [sp, #28]
    3cec04cc:	7100001f 	cmp	w0, #0x0
    3cec04d0:	54000060 	b.eq	3cec04dc <PRT_UartInit+0x64>  // b.none
/os/oscope/rtos/uniproton/demos/rk3566_rz3w/bsp/print.c:44
        return ret;
    3cec04d4:	b9401fe0 	ldr	w0, [sp, #28]
    3cec04d8:	14000011 	b	3cec051c <PRT_UartInit+0xa4>
/os/oscope/rtos/uniproton/demos/rk3566_rz3w/bsp/print.c:47
    }

    ret = PRT_HwiEnable(CCORE_SYS_UART4_INTID);
    3cec04dc:	52800b80 	mov	w0, #0x5c                  	// #92
    3cec04e0:	94005281 	bl	3ced4ee4 <PRT_HwiEnable>
    3cec04e4:	b9001fe0 	str	w0, [sp, #28]
/os/oscope/rtos/uniproton/demos/rk3566_rz3w/bsp/print.c:48
    if (ret != OS_OK) {
    3cec04e8:	b9401fe0 	ldr	w0, [sp, #28]
    3cec04ec:	7100001f 	cmp	w0, #0x0
    3cec04f0:	54000060 	b.eq	3cec04fc <PRT_UartInit+0x84>  // b.none
/os/oscope/rtos/uniproton/demos/rk3566_rz3w/bsp/print.c:49
        return ret;
    3cec04f4:	b9401fe0 	ldr	w0, [sp, #28]
    3cec04f8:	14000009 	b	3cec051c <PRT_UartInit+0xa4>
/os/oscope/rtos/uniproton/demos/rk3566_rz3w/bsp/print.c:52
    }

    serial_init(&g_uart_cfg, &g_uart_ops);
    3cec04fc:	90000000 	adrp	x0, 3cec0000 <OsSiccEnableGroup1+0x20>
    3cec0500:	9114c000 	add	x0, x0, #0x530
    3cec0504:	f9400001 	ldr	x1, [x0]
    3cec0508:	90000000 	adrp	x0, 3cec0000 <OsSiccEnableGroup1+0x20>
    3cec050c:	9114e000 	add	x0, x0, #0x538
    3cec0510:	f9400000 	ldr	x0, [x0]
    3cec0514:	94000475 	bl	3cec16e8 <serial_init>
/os/oscope/rtos/uniproton/demos/rk3566_rz3w/bsp/print.c:54

    return OS_OK;
    3cec0518:	52800000 	mov	w0, #0x0                   	// #0
/os/oscope/rtos/uniproton/demos/rk3566_rz3w/bsp/print.c:55
}
    3cec051c:	f84207fe 	ldr	x30, [sp], #32
    3cec0520:	d65f03c0 	ret
    3cec0524:	d503201f 	nop
    3cec0528:	3cec044c 	.word	0x3cec044c
    3cec052c:	00000000 	.word	0x00000000
    3cec0530:	3ceff480 	.word	0x3ceff480
    3cec0534:	00000000 	.word	0x00000000
    3cec0538:	3ceff448 	.word	0x3ceff448
    3cec053c:	00000000 	.word	0x00000000

000000003cec0540 <uart_poll_send>:
uart_poll_send():
/os/oscope/rtos/uniproton/demos/rk3566_rz3w/bsp/print.c:58

void uart_poll_send(unsigned char ch)
{
    3cec0540:	d10083ff 	sub	sp, sp, #0x20
    3cec0544:	39003fe0 	strb	w0, [sp, #15]
/os/oscope/rtos/uniproton/demos/rk3566_rz3w/bsp/print.c:61
    /* uart */
    // serial_putc((char)ch);
    volatile int time = 100;
    3cec0548:	52800c80 	mov	w0, #0x64                  	// #100
    3cec054c:	b9001fe0 	str	w0, [sp, #28]
/os/oscope/rtos/uniproton/demos/rk3566_rz3w/bsp/print.c:62
    *(unsigned int *)UART_BASE_ADDR = ch;
    3cec0550:	d2bfccc0 	mov	x0, #0xfe660000            	// #4268097536
    3cec0554:	39403fe1 	ldrb	w1, [sp, #15]
    3cec0558:	b9000001 	str	w1, [x0]
/os/oscope/rtos/uniproton/demos/rk3566_rz3w/bsp/print.c:63
    while (time--);
    3cec055c:	d503201f 	nop
/os/oscope/rtos/uniproton/demos/rk3566_rz3w/bsp/print.c:63 (discriminator 1)
    3cec0560:	b9401fe0 	ldr	w0, [sp, #28]
    3cec0564:	51000401 	sub	w1, w0, #0x1
    3cec0568:	b9001fe1 	str	w1, [sp, #28]
    3cec056c:	7100001f 	cmp	w0, #0x0
    3cec0570:	54ffff81 	b.ne	3cec0560 <uart_poll_send+0x20>  // b.any
/os/oscope/rtos/uniproton/demos/rk3566_rz3w/bsp/print.c:64
}
    3cec0574:	d503201f 	nop
    3cec0578:	d503201f 	nop
    3cec057c:	910083ff 	add	sp, sp, #0x20
    3cec0580:	d65f03c0 	ret

000000003cec0584 <TestPutc>:
TestPutc():
/os/oscope/rtos/uniproton/demos/rk3566_rz3w/bsp/print.c:67

void TestPutc(unsigned char ch)
{
    3cec0584:	f81e0ffe 	str	x30, [sp, #-32]!
    3cec0588:	39007fe0 	strb	w0, [sp, #31]
/os/oscope/rtos/uniproton/demos/rk3566_rz3w/bsp/print.c:68
    uart_poll_send(ch);
    3cec058c:	39407fe0 	ldrb	w0, [sp, #31]
    3cec0590:	97ffffec 	bl	3cec0540 <uart_poll_send>
/os/oscope/rtos/uniproton/demos/rk3566_rz3w/bsp/print.c:69
    if (ch == '\n') {
    3cec0594:	39407fe0 	ldrb	w0, [sp, #31]
    3cec0598:	7100281f 	cmp	w0, #0xa
    3cec059c:	54000061 	b.ne	3cec05a8 <TestPutc+0x24>  // b.any
/os/oscope/rtos/uniproton/demos/rk3566_rz3w/bsp/print.c:70
        uart_poll_send('\r');
    3cec05a0:	528001a0 	mov	w0, #0xd                   	// #13
    3cec05a4:	97ffffe7 	bl	3cec0540 <uart_poll_send>
/os/oscope/rtos/uniproton/demos/rk3566_rz3w/bsp/print.c:72
    }
}
    3cec05a8:	d503201f 	nop
    3cec05ac:	f84207fe 	ldr	x30, [sp], #32
    3cec05b0:	d65f03c0 	ret

000000003cec05b4 <TestPrintf>:
TestPrintf():
/os/oscope/rtos/uniproton/demos/rk3566_rz3w/bsp/print.c:75

int TestPrintf(const char *format, va_list vaList)
{
    3cec05b4:	d10943ff 	sub	sp, sp, #0x250
    3cec05b8:	a9007bf3 	stp	x19, x30, [sp]
    3cec05bc:	f9001fe0 	str	x0, [sp, #56]
    3cec05c0:	aa0103f3 	mov	x19, x1
/os/oscope/rtos/uniproton/demos/rk3566_rz3w/bsp/print.c:77
    int len;
    char buff[OS_MAX_SHOW_LEN] = {0};
    3cec05c4:	a9047fff 	stp	xzr, xzr, [sp, #64]
    3cec05c8:	910143e0 	add	x0, sp, #0x50
    3cec05cc:	d2803e01 	mov	x1, #0x1f0                 	// #496
    3cec05d0:	aa0103e2 	mov	x2, x1
    3cec05d4:	52800001 	mov	w1, #0x0                   	// #0
    3cec05d8:	97fffa46 	bl	3cebeef0 <__wrap_memset>
/os/oscope/rtos/uniproton/demos/rk3566_rz3w/bsp/print.c:78
    char *str = buff;
    3cec05dc:	910103e0 	add	x0, sp, #0x40
    3cec05e0:	f90127e0 	str	x0, [sp, #584]
/os/oscope/rtos/uniproton/demos/rk3566_rz3w/bsp/print.c:80
    
    len = vsnprintf_s(buff, OS_MAX_SHOW_LEN, OS_MAX_SHOW_LEN, format, vaList);
    3cec05e4:	f9400260 	ldr	x0, [x19]
    3cec05e8:	f9000be0 	str	x0, [sp, #16]
    3cec05ec:	f9400660 	ldr	x0, [x19, #8]
    3cec05f0:	f9000fe0 	str	x0, [sp, #24]
    3cec05f4:	f9400a60 	ldr	x0, [x19, #16]
    3cec05f8:	f90013e0 	str	x0, [sp, #32]
    3cec05fc:	f9400e60 	ldr	x0, [x19, #24]
    3cec0600:	f90017e0 	str	x0, [sp, #40]
    3cec0604:	910043e1 	add	x1, sp, #0x10
    3cec0608:	910103e0 	add	x0, sp, #0x40
    3cec060c:	aa0103e4 	mov	x4, x1
    3cec0610:	f9401fe3 	ldr	x3, [sp, #56]
    3cec0614:	d2804002 	mov	x2, #0x200                 	// #512
    3cec0618:	d2804001 	mov	x1, #0x200                 	// #512
    3cec061c:	9400085b 	bl	3cec2788 <vsnprintf_s>
    3cec0620:	b90247e0 	str	w0, [sp, #580]
/os/oscope/rtos/uniproton/demos/rk3566_rz3w/bsp/print.c:81
    if (len == -1) {
    3cec0624:	b94247e0 	ldr	w0, [sp, #580]
    3cec0628:	3100041f 	cmn	w0, #0x1
    3cec062c:	54000121 	b.ne	3cec0650 <TestPrintf+0x9c>  // b.any
/os/oscope/rtos/uniproton/demos/rk3566_rz3w/bsp/print.c:82
        return len;
    3cec0630:	b94247e0 	ldr	w0, [sp, #580]
    3cec0634:	1400000c 	b	3cec0664 <TestPrintf+0xb0>
/os/oscope/rtos/uniproton/demos/rk3566_rz3w/bsp/print.c:86
    }
    
    while (*str != '\0') {
        TestPutc(*str);
    3cec0638:	f94127e0 	ldr	x0, [sp, #584]
    3cec063c:	39400000 	ldrb	w0, [x0]
    3cec0640:	97ffffd1 	bl	3cec0584 <TestPutc>
/os/oscope/rtos/uniproton/demos/rk3566_rz3w/bsp/print.c:87
        str++;
    3cec0644:	f94127e0 	ldr	x0, [sp, #584]
    3cec0648:	91000400 	add	x0, x0, #0x1
    3cec064c:	f90127e0 	str	x0, [sp, #584]
/os/oscope/rtos/uniproton/demos/rk3566_rz3w/bsp/print.c:85
    while (*str != '\0') {
    3cec0650:	f94127e0 	ldr	x0, [sp, #584]
    3cec0654:	39400000 	ldrb	w0, [x0]
    3cec0658:	7100001f 	cmp	w0, #0x0
    3cec065c:	54fffee1 	b.ne	3cec0638 <TestPrintf+0x84>  // b.any
/os/oscope/rtos/uniproton/demos/rk3566_rz3w/bsp/print.c:90
    }
    
    return OS_OK;
    3cec0660:	52800000 	mov	w0, #0x0                   	// #0
/os/oscope/rtos/uniproton/demos/rk3566_rz3w/bsp/print.c:91 (discriminator 1)
}
    3cec0664:	a9407bf3 	ldp	x19, x30, [sp]
    3cec0668:	910943ff 	add	sp, sp, #0x250
    3cec066c:	d65f03c0 	ret

000000003cec0670 <PRT_Printf>:
PRT_Printf():
/os/oscope/rtos/uniproton/demos/rk3566_rz3w/bsp/print.c:94

U32 PRT_Printf(const char *format, ...)
{
    3cec0670:	f8150ffe 	str	x30, [sp, #-176]!
    3cec0674:	f9001fe0 	str	x0, [sp, #56]
    3cec0678:	f9003fe1 	str	x1, [sp, #120]
    3cec067c:	f90043e2 	str	x2, [sp, #128]
    3cec0680:	f90047e3 	str	x3, [sp, #136]
    3cec0684:	f9004be4 	str	x4, [sp, #144]
    3cec0688:	f9004fe5 	str	x5, [sp, #152]
    3cec068c:	f90053e6 	str	x6, [sp, #160]
    3cec0690:	f90057e7 	str	x7, [sp, #168]
/os/oscope/rtos/uniproton/demos/rk3566_rz3w/bsp/print.c:98
    va_list vaList;
    S32 count;
    
    va_start(vaList, format);
    3cec0694:	9102c3e0 	add	x0, sp, #0xb0
    3cec0698:	f90027e0 	str	x0, [sp, #72]
    3cec069c:	9102c3e0 	add	x0, sp, #0xb0
    3cec06a0:	f9002be0 	str	x0, [sp, #80]
    3cec06a4:	9101c3e0 	add	x0, sp, #0x70
    3cec06a8:	f9002fe0 	str	x0, [sp, #88]
    3cec06ac:	128006e0 	mov	w0, #0xffffffc8            	// #-56
    3cec06b0:	b90063e0 	str	w0, [sp, #96]
    3cec06b4:	b90067ff 	str	wzr, [sp, #100]
/os/oscope/rtos/uniproton/demos/rk3566_rz3w/bsp/print.c:99
    count = TestPrintf(format, vaList);
    3cec06b8:	f94027e0 	ldr	x0, [sp, #72]
    3cec06bc:	f9000be0 	str	x0, [sp, #16]
    3cec06c0:	f9402be0 	ldr	x0, [sp, #80]
    3cec06c4:	f9000fe0 	str	x0, [sp, #24]
    3cec06c8:	f9402fe0 	ldr	x0, [sp, #88]
    3cec06cc:	f90013e0 	str	x0, [sp, #32]
    3cec06d0:	f94033e0 	ldr	x0, [sp, #96]
    3cec06d4:	f90017e0 	str	x0, [sp, #40]
    3cec06d8:	910043e0 	add	x0, sp, #0x10
    3cec06dc:	aa0003e1 	mov	x1, x0
    3cec06e0:	f9401fe0 	ldr	x0, [sp, #56]
    3cec06e4:	97ffffb4 	bl	3cec05b4 <TestPrintf>
    3cec06e8:	b9006fe0 	str	w0, [sp, #108]
/os/oscope/rtos/uniproton/demos/rk3566_rz3w/bsp/print.c:102
    va_end(vaList);
    
    return count;
    3cec06ec:	b9406fe0 	ldr	w0, [sp, #108]
/os/oscope/rtos/uniproton/demos/rk3566_rz3w/bsp/print.c:103
}
    3cec06f0:	f84b07fe 	ldr	x30, [sp], #176
    3cec06f4:	d65f03c0 	ret

000000003cec06f8 <PRT_PrintfInit>:
PRT_PrintfInit():
/os/oscope/rtos/uniproton/demos/rk3566_rz3w/bsp/print.c:106

U32 PRT_PrintfInit()
{
    3cec06f8:	f81e0ffe 	str	x30, [sp, #-32]!
/os/oscope/rtos/uniproton/demos/rk3566_rz3w/bsp/print.c:109
    U32 ret;

    ret = PRT_UartInit();
    3cec06fc:	97ffff5f 	bl	3cec0478 <PRT_UartInit>
    3cec0700:	b9001fe0 	str	w0, [sp, #28]
/os/oscope/rtos/uniproton/demos/rk3566_rz3w/bsp/print.c:110
    if (ret != OS_OK) {
    3cec0704:	b9401fe0 	ldr	w0, [sp, #28]
    3cec0708:	7100001f 	cmp	w0, #0x0
    3cec070c:	54000060 	b.eq	3cec0718 <PRT_PrintfInit+0x20>  // b.none
/os/oscope/rtos/uniproton/demos/rk3566_rz3w/bsp/print.c:111
        return ret;
    3cec0710:	b9401fe0 	ldr	w0, [sp, #28]
    3cec0714:	14000002 	b	3cec071c <PRT_PrintfInit+0x24>
/os/oscope/rtos/uniproton/demos/rk3566_rz3w/bsp/print.c:114
    }

    return OS_OK;
    3cec0718:	52800000 	mov	w0, #0x0                   	// #0
/os/oscope/rtos/uniproton/demos/rk3566_rz3w/bsp/print.c:115
}
    3cec071c:	f84207fe 	ldr	x30, [sp], #32
    3cec0720:	d65f03c0 	ret

000000003cec0724 <GetGenericTimerFreq>:
GetGenericTimerFreq():
/os/oscope/rtos/uniproton/demos/rk3566_rz3w/bsp/timer.c:13

U64 g_timerFrequency;
#define PMU_TIMER_FREQUENCY g_timerFrequency

U64 GetGenericTimerFreq(void)
{
    3cec0724:	d10043ff 	sub	sp, sp, #0x10
/os/oscope/rtos/uniproton/demos/rk3566_rz3w/bsp/timer.c:16
    U64 freq;

    OS_EMBED_ASM("MRS %0, CNTFRQ_EL0" : "=r"(freq) : : "memory", "cc");
    3cec0728:	d53be000 	mrs	x0, cntfrq_el0
    3cec072c:	f90007e0 	str	x0, [sp, #8]
/os/oscope/rtos/uniproton/demos/rk3566_rz3w/bsp/timer.c:18
    
    return freq;
    3cec0730:	f94007e0 	ldr	x0, [sp, #8]
/os/oscope/rtos/uniproton/demos/rk3566_rz3w/bsp/timer.c:19
}
    3cec0734:	910043ff 	add	sp, sp, #0x10
    3cec0738:	d65f03c0 	ret
    3cec073c:	00000000 	udf	#0

000000003cec0740 <TimerIsr>:
TimerIsr():
/os/oscope/rtos/uniproton/demos/rk3566_rz3w/bsp/timer.c:24

void TimerIsr(uintptr_t para)
{
    static timerCnt = 0;
    timerCnt++;
    3cec0740:	f81d0ffe 	str	x30, [sp, #-48]!
    3cec0744:	f9000fe0 	str	x0, [sp, #24]
/os/oscope/rtos/uniproton/demos/rk3566_rz3w/bsp/timer.c:26
    if (timerCnt > 1000) {
        timerCnt = 0;
    3cec0748:	90000000 	adrp	x0, 3cec0000 <OsSiccEnableGroup1+0x20>
    3cec074c:	91204000 	add	x0, x0, #0x810
    3cec0750:	f9400000 	ldr	x0, [x0]
    3cec0754:	b9400000 	ldr	w0, [x0]
    3cec0758:	11000401 	add	w1, w0, #0x1
    3cec075c:	90000000 	adrp	x0, 3cec0000 <OsSiccEnableGroup1+0x20>
    3cec0760:	91204000 	add	x0, x0, #0x810
    3cec0764:	f9400000 	ldr	x0, [x0]
    3cec0768:	b9000001 	str	w1, [x0]
/os/oscope/rtos/uniproton/demos/rk3566_rz3w/bsp/timer.c:28
        PRT_Printf("TimerIsr enter! \n");
    }
    3cec076c:	90000000 	adrp	x0, 3cec0000 <OsSiccEnableGroup1+0x20>
    3cec0770:	91204000 	add	x0, x0, #0x810
    3cec0774:	f9400000 	ldr	x0, [x0]
    3cec0778:	b9400000 	ldr	w0, [x0]
    3cec077c:	710fa01f 	cmp	w0, #0x3e8
    3cec0780:	5400012d 	b.le	3cec07a4 <TimerIsr+0x64>
/os/oscope/rtos/uniproton/demos/rk3566_rz3w/bsp/timer.c:29

    3cec0784:	90000000 	adrp	x0, 3cec0000 <OsSiccEnableGroup1+0x20>
    3cec0788:	91204000 	add	x0, x0, #0x810
    3cec078c:	f9400000 	ldr	x0, [x0]
    3cec0790:	b900001f 	str	wzr, [x0]
/os/oscope/rtos/uniproton/demos/rk3566_rz3w/bsp/timer.c:30
    (void)para;
    3cec0794:	90000000 	adrp	x0, 3cec0000 <OsSiccEnableGroup1+0x20>
    3cec0798:	91206000 	add	x0, x0, #0x818
    3cec079c:	f9400000 	ldr	x0, [x0]
    3cec07a0:	97ffffb4 	bl	3cec0670 <PRT_Printf>
/os/oscope/rtos/uniproton/demos/rk3566_rz3w/bsp/timer.c:34
    U32 cfgMask = 0x0;
    U64 cycle = PMU_TIMER_FREQUENCY / OS_TICK_PER_SECOND;
    
    OS_EMBED_ASM("MSR CNTP_CTL_EL0, %0" : : "r"(cfgMask) : "memory");
    3cec07a4:	b9002fff 	str	wzr, [sp, #44]
/os/oscope/rtos/uniproton/demos/rk3566_rz3w/bsp/timer.c:35
    PRT_ISB();
    3cec07a8:	90000000 	adrp	x0, 3cec0000 <OsSiccEnableGroup1+0x20>
    3cec07ac:	91208000 	add	x0, x0, #0x820
    3cec07b0:	f9400000 	ldr	x0, [x0]
    3cec07b4:	f9400000 	ldr	x0, [x0]
    3cec07b8:	d343fc01 	lsr	x1, x0, #3
    3cec07bc:	d29ef9e0 	mov	x0, #0xf7cf                	// #63439
    3cec07c0:	f2bc6a60 	movk	x0, #0xe353, lsl #16
    3cec07c4:	f2d374a0 	movk	x0, #0x9ba5, lsl #32
    3cec07c8:	f2e41880 	movk	x0, #0x20c4, lsl #48
    3cec07cc:	9bc07c20 	umulh	x0, x1, x0
    3cec07d0:	d344fc00 	lsr	x0, x0, #4
    3cec07d4:	f90013e0 	str	x0, [sp, #32]
/os/oscope/rtos/uniproton/demos/rk3566_rz3w/bsp/timer.c:37
    OS_EMBED_ASM("MSR CNTP_TVAL_EL0, %0" : : "r"(cycle) : "memory", "cc");

    3cec07d8:	b9402fe0 	ldr	w0, [sp, #44]
    3cec07dc:	d51be220 	msr	cntp_ctl_el0, x0
/os/oscope/rtos/uniproton/demos/rk3566_rz3w/bsp/timer.c:38
    cfgMask = 0x1;
    3cec07e0:	d5033fdf 	isb
/os/oscope/rtos/uniproton/demos/rk3566_rz3w/bsp/timer.c:39
    OS_EMBED_ASM("MSR CNTP_CTL_EL0, %0" : : "r"(cfgMask) : "memory");
    3cec07e4:	f94013e0 	ldr	x0, [sp, #32]
    3cec07e8:	d51be200 	msr	cntp_tval_el0, x0
/os/oscope/rtos/uniproton/demos/rk3566_rz3w/bsp/timer.c:41

    PRT_TickISR();
    3cec07ec:	52800020 	mov	w0, #0x1                   	// #1
    3cec07f0:	b9002fe0 	str	w0, [sp, #44]
/os/oscope/rtos/uniproton/demos/rk3566_rz3w/bsp/timer.c:42
    PRT_ISB();
    3cec07f4:	b9402fe0 	ldr	w0, [sp, #44]
    3cec07f8:	d51be220 	msr	cntp_ctl_el0, x0
/os/oscope/rtos/uniproton/demos/rk3566_rz3w/bsp/timer.c:44
}

    3cec07fc:	94000f3b 	bl	3cec44e8 <PRT_TickISR>
/os/oscope/rtos/uniproton/demos/rk3566_rz3w/bsp/timer.c:45
void CoreTimerInit(void)
    3cec0800:	d5033fdf 	isb
/os/oscope/rtos/uniproton/demos/rk3566_rz3w/bsp/timer.c:46
{
    3cec0804:	d503201f 	nop
    3cec0808:	f84307fe 	ldr	x30, [sp], #48
    3cec080c:	d65f03c0 	ret
    3cec0810:	3cf87008 	.word	0x3cf87008
    3cec0814:	00000000 	.word	0x00000000
    3cec0818:	3ceda028 	.word	0x3ceda028
    3cec081c:	00000000 	.word	0x00000000
    3cec0820:	3cf87000 	.word	0x3cf87000
    3cec0824:	00000000 	.word	0x00000000

000000003cec0828 <CoreTimerInit>:
CoreTimerInit():
/os/oscope/rtos/uniproton/demos/rk3566_rz3w/bsp/timer.c:49
    U32 cfgMask = 0x0;
    U64 cycle = PMU_TIMER_FREQUENCY / OS_TICK_PER_SECOND;
    
    3cec0828:	d10043ff 	sub	sp, sp, #0x10
/os/oscope/rtos/uniproton/demos/rk3566_rz3w/bsp/timer.c:50
    OS_EMBED_ASM("MSR CNTP_CTL_EL0, %0" : : "r"(cfgMask) : "memory");
    3cec082c:	b9000fff 	str	wzr, [sp, #12]
/os/oscope/rtos/uniproton/demos/rk3566_rz3w/bsp/timer.c:51
    PRT_ISB();
    3cec0830:	90000000 	adrp	x0, 3cec0000 <OsSiccEnableGroup1+0x20>
    3cec0834:	91224000 	add	x0, x0, #0x890
    3cec0838:	f9400000 	ldr	x0, [x0]
    3cec083c:	f9400000 	ldr	x0, [x0]
    3cec0840:	d343fc01 	lsr	x1, x0, #3
    3cec0844:	d29ef9e0 	mov	x0, #0xf7cf                	// #63439
    3cec0848:	f2bc6a60 	movk	x0, #0xe353, lsl #16
    3cec084c:	f2d374a0 	movk	x0, #0x9ba5, lsl #32
    3cec0850:	f2e41880 	movk	x0, #0x20c4, lsl #48
    3cec0854:	9bc07c20 	umulh	x0, x1, x0
    3cec0858:	d344fc00 	lsr	x0, x0, #4
    3cec085c:	f90003e0 	str	x0, [sp]
/os/oscope/rtos/uniproton/demos/rk3566_rz3w/bsp/timer.c:53
    OS_EMBED_ASM("MSR CNTP_TVAL_EL0, %0" : : "r"(cycle) : "memory", "cc");
    
    3cec0860:	b9400fe0 	ldr	w0, [sp, #12]
    3cec0864:	d51be220 	msr	cntp_ctl_el0, x0
/os/oscope/rtos/uniproton/demos/rk3566_rz3w/bsp/timer.c:54
    cfgMask = 0x1;
    3cec0868:	d5033fdf 	isb
/os/oscope/rtos/uniproton/demos/rk3566_rz3w/bsp/timer.c:55
    OS_EMBED_ASM("MSR CNTP_CTL_EL0, %0" : : "r"(cfgMask) : "memory");
    3cec086c:	f94003e0 	ldr	x0, [sp]
    3cec0870:	d51be200 	msr	cntp_tval_el0, x0
/os/oscope/rtos/uniproton/demos/rk3566_rz3w/bsp/timer.c:57
}

    3cec0874:	52800020 	mov	w0, #0x1                   	// #1
    3cec0878:	b9000fe0 	str	w0, [sp, #12]
/os/oscope/rtos/uniproton/demos/rk3566_rz3w/bsp/timer.c:58
U32 CoreTimerStart(void)
    3cec087c:	b9400fe0 	ldr	w0, [sp, #12]
    3cec0880:	d51be220 	msr	cntp_ctl_el0, x0
/os/oscope/rtos/uniproton/demos/rk3566_rz3w/bsp/timer.c:59
{
    3cec0884:	d503201f 	nop
    3cec0888:	910043ff 	add	sp, sp, #0x10
    3cec088c:	d65f03c0 	ret
    3cec0890:	3cf87000 	.word	0x3cf87000
    3cec0894:	00000000 	.word	0x00000000

000000003cec0898 <CoreTimerStart>:
CoreTimerStart():
/os/oscope/rtos/uniproton/demos/rk3566_rz3w/bsp/timer.c:62
    g_timerFrequency = GetGenericTimerFreq();
    CoreTimerInit();
    
    3cec0898:	f81f0ffe 	str	x30, [sp, #-16]!
/os/oscope/rtos/uniproton/demos/rk3566_rz3w/bsp/timer.c:63
    return OS_OK;
    3cec089c:	97ffffa2 	bl	3cec0724 <GetGenericTimerFreq>
    3cec08a0:	aa0003e1 	mov	x1, x0
    3cec08a4:	90000000 	adrp	x0, 3cec0000 <OsSiccEnableGroup1+0x20>
    3cec08a8:	91232000 	add	x0, x0, #0x8c8
    3cec08ac:	f9400000 	ldr	x0, [x0]
    3cec08b0:	f9000001 	str	x1, [x0]
/os/oscope/rtos/uniproton/demos/rk3566_rz3w/bsp/timer.c:64
}
    3cec08b4:	97ffffdd 	bl	3cec0828 <CoreTimerInit>
/os/oscope/rtos/uniproton/demos/rk3566_rz3w/bsp/timer.c:66

U32 TestClkStart(void)
    3cec08b8:	52800000 	mov	w0, #0x0                   	// #0
/os/oscope/rtos/uniproton/demos/rk3566_rz3w/bsp/timer.c:67
{
    3cec08bc:	f84107fe 	ldr	x30, [sp], #16
    3cec08c0:	d65f03c0 	ret
    3cec08c4:	d503201f 	nop
    3cec08c8:	3cf87000 	.word	0x3cf87000
    3cec08cc:	00000000 	.word	0x00000000

000000003cec08d0 <TestClkStart>:
TestClkStart():
/os/oscope/rtos/uniproton/demos/rk3566_rz3w/bsp/timer.c:70
    U32 ret;
    ret = PRT_HwiSetAttr(TEST_CLK_INT, 10, OS_HWI_MODE_ENGROSS);
    if (ret != OS_OK) {
    3cec08d0:	f81e0ffe 	str	x30, [sp, #-32]!
/os/oscope/rtos/uniproton/demos/rk3566_rz3w/bsp/timer.c:72
        return ret;
    }
    3cec08d4:	52880002 	mov	w2, #0x4000                	// #16384
    3cec08d8:	52800141 	mov	w1, #0xa                   	// #10
    3cec08dc:	528003c0 	mov	w0, #0x1e                  	// #30
    3cec08e0:	94005262 	bl	3ced5268 <PRT_HwiSetAttr>
    3cec08e4:	b9001fe0 	str	w0, [sp, #28]
/os/oscope/rtos/uniproton/demos/rk3566_rz3w/bsp/timer.c:73
    
    3cec08e8:	b9401fe0 	ldr	w0, [sp, #28]
    3cec08ec:	7100001f 	cmp	w0, #0x0
    3cec08f0:	54000060 	b.eq	3cec08fc <TestClkStart+0x2c>  // b.none
/os/oscope/rtos/uniproton/demos/rk3566_rz3w/bsp/timer.c:74
    ret = PRT_HwiCreate(TEST_CLK_INT, (HwiProcFunc)TimerIsr, 0);
    3cec08f4:	b9401fe0 	ldr	w0, [sp, #28]
    3cec08f8:	1400001d 	b	3cec096c <TestClkStart+0x9c>
/os/oscope/rtos/uniproton/demos/rk3566_rz3w/bsp/timer.c:77
    if (ret != OS_OK) {
        return ret;
    }
    3cec08fc:	d2800002 	mov	x2, #0x0                   	// #0
    3cec0900:	90000000 	adrp	x0, 3cec0000 <OsSiccEnableGroup1+0x20>
    3cec0904:	9125e000 	add	x0, x0, #0x978
    3cec0908:	f9400001 	ldr	x1, [x0]
    3cec090c:	528003c0 	mov	w0, #0x1e                  	// #30
    3cec0910:	9400527a 	bl	3ced52f8 <PRT_HwiCreate>
    3cec0914:	b9001fe0 	str	w0, [sp, #28]
/os/oscope/rtos/uniproton/demos/rk3566_rz3w/bsp/timer.c:78
    
    3cec0918:	b9401fe0 	ldr	w0, [sp, #28]
    3cec091c:	7100001f 	cmp	w0, #0x0
    3cec0920:	54000060 	b.eq	3cec092c <TestClkStart+0x5c>  // b.none
/os/oscope/rtos/uniproton/demos/rk3566_rz3w/bsp/timer.c:79
#if (OS_GIC_VER == 3)
    3cec0924:	b9401fe0 	ldr	w0, [sp, #28]
    3cec0928:	14000011 	b	3cec096c <TestClkStart+0x9c>
/os/oscope/rtos/uniproton/demos/rk3566_rz3w/bsp/timer.c:83
    ret = PRT_HwiEnable(TEST_CLK_INT);
    if (ret != OS_OK) {
        return ret;
    }
    3cec092c:	528003c0 	mov	w0, #0x1e                  	// #30
    3cec0930:	9400516d 	bl	3ced4ee4 <PRT_HwiEnable>
    3cec0934:	b9001fe0 	str	w0, [sp, #28]
/os/oscope/rtos/uniproton/demos/rk3566_rz3w/bsp/timer.c:84
#elif (OS_GIC_VER == 2)
    3cec0938:	b9401fe0 	ldr	w0, [sp, #28]
    3cec093c:	7100001f 	cmp	w0, #0x0
    3cec0940:	54000060 	b.eq	3cec094c <TestClkStart+0x7c>  // b.none
/os/oscope/rtos/uniproton/demos/rk3566_rz3w/bsp/timer.c:85
    IsrRegister(TEST_CLK_INT, 0xaU, (0x1U << 0x3U));
    3cec0944:	b9401fe0 	ldr	w0, [sp, #28]
    3cec0948:	14000009 	b	3cec096c <TestClkStart+0x9c>
/os/oscope/rtos/uniproton/demos/rk3566_rz3w/bsp/timer.c:91
#endif

    ret = CoreTimerStart();
    if (ret != OS_OK) {
        return ret;
    }
    3cec094c:	97ffffd3 	bl	3cec0898 <CoreTimerStart>
    3cec0950:	b9001fe0 	str	w0, [sp, #28]
/os/oscope/rtos/uniproton/demos/rk3566_rz3w/bsp/timer.c:92

    3cec0954:	b9401fe0 	ldr	w0, [sp, #28]
    3cec0958:	7100001f 	cmp	w0, #0x0
    3cec095c:	54000060 	b.eq	3cec0968 <TestClkStart+0x98>  // b.none
/os/oscope/rtos/uniproton/demos/rk3566_rz3w/bsp/timer.c:93
